(dp1
S'Black Hawk Down'
p2
S'2001'
p3
sS'The Girl with the Dragon Tattoo'
p4
S'2009'
p5
sS'Moneyball'
p6
S'2011'
p7
sS'Entertainment'
p8
S'2014'
p9
sS'Sweet Young Trouble'
p10
S'1980'
p11
sS'Over the Wire'
p12
S'1996'
p13
sS'The Five-Year Engagement'
p14
S'2012'
p15
sS'Meet the Robinsons'
p16
S'2007'
p17
sS'Bhaag Milkha Bhaag'
p18
S'2013'
p19
sS'Next Avengers: Heroes of Tomorrow'
p20
S'2008'
p21
sS'Dragon Ball Z: Battle of Gods'
p22
S'2013'
p23
sS'Bollywood Movie: The Movie'
p24
S'2015'
p25
sS'The Bridge on the River Kwai'
p26
S'1957'
p27
sS'Pirates of Silicon Valley'
p28
S'1999'
p29
sS'Dil Chahta Hai'
p30
S'2001'
p31
sS'The Fourth Kind'
p32
S'2009'
p33
sS'The Judge'
p34
S'2014'
p35
sS'Transformers: Age of Extinction'
p36
S'2014'
p37
sS'Raincoat'
p38
S'2004'
p39
sS'Into the Universe with Stephen Hawking'
p40
S'2010'
p41
sS'Hulk'
p42
S'2003'
p43
sS'The Merchant of Venice'
p44
S'2004'
p45
sS'The Usual Suspects'
p46
S'1995'
p47
sS'Bean'
p48
S'1997'
p49
sS'Wreck-It Ralph'
p50
I2012
sS'Star Wars: Episode III - Revenge of the Sith'
p51
S'2005'
p52
sS'Fast & Furious'
p53
S'2009'
p54
sS'Star Wars: Episode V - The Empire Strikes Back'
p55
S'1980'
p56
sS'American Hustle'
p57
S'2013'
p58
sS'Step Up All In'
p59
S'2014'
p60
sS'Knucklehead'
p61
S'2010'
p62
sS'Frozen'
p63
S'2013'
p64
sS'Delhi Safari'
p65
S'2012'
p66
sS'Diary of a Wimpy Kid: Rodrick Rules'
p67
S'2011'
p68
sS'Remember the Titans'
p69
S'2000'
p70
sS'Redline'
p71
S'2007'
p72
sS'Anchorman 2: The Legend Continues'
p73
S'2013'
p74
sS'Olympus Has Fallen'
p75
S'2013'
p76
sS'Campus Swingers'
p77
S'1972'
p78
sS'The Last Castle'
p79
S'2001'
p80
sS'Persepolis'
p81
S'2007'
p82
sS'The Raid 2'
p83
S'2014'
p84
sS'28 Days Later...'
p85
S'2002'
p86
sS'The Babadook'
p87
S'2014'
p88
sS'The Hobbit: The Battle of the Five Armies'
p89
S'2014'
p90
sS'Harry Potter and the Half-Blood Prince'
p91
S'2009'
p92
sS'Resident Evil: Retribution'
p93
S'2012'
p94
sS'The Lords of Salem'
p95
S'2013'
p96
sS'Prisoners'
p97
S'2013'
p98
sS'The Pink Panther 2'
p99
S'2009'
p100
sS'Eyeborgs'
p101
S'2009'
p102
sS'36th Precinct'
p103
S'2004'
p104
sS'The Godfather'
p105
S'1972'
p106
sS'World War Z'
p107
S'2013'
p108
sS'Escape from Planet Earth'
p109
S'2013'
p110
sS'Anand'
p111
S'1971'
p112
sS'I Origins'
p113
S'2014'
p114
sS'Maleficent'
p115
S'2014'
p116
sS'Scary Movie 4'
p117
S'2006'
p118
sS'Kick-Ass 2'
p119
S'2013'
p120
sS'5 Centimeters Per Second'
p121
S'2007'
p122
sS'Yaariyan'
p123
S'2014'
p124
sS'Perfume: The Story of a Murderer'
p125
S'2006'
p126
sS'Mystic River'
p127
S'2003'
p128
s.