
copy:     file format elf32-i386


Disassembly of section .init:

0804844c <.init>:
 804844c:	53                   	push   %ebx
 804844d:	83 ec 08             	sub    $0x8,%esp
 8048450:	e8 00 00 00 00       	call   8048455 <raise@plt-0x3b>
 8048455:	5b                   	pop    %ebx
 8048456:	81 c3 9f 3b 00 00    	add    $0x3b9f,%ebx
 804845c:	8b 83 fc ff ff ff    	mov    -0x4(%ebx),%eax
 8048462:	85 c0                	test   %eax,%eax
 8048464:	74 05                	je     804846b <raise@plt-0x25>
 8048466:	e8 65 00 00 00       	call   80484d0 <__gmon_start__@plt>
 804846b:	e8 60 01 00 00       	call   80485d0 <fputc@plt+0xa0>
 8048470:	e8 fb 18 00 00       	call   8049d70 <fputc@plt+0x1840>
 8048475:	83 c4 08             	add    $0x8,%esp
 8048478:	5b                   	pop    %ebx
 8048479:	c3                   	ret    

Disassembly of section .plt:

08048480 <raise@plt-0x10>:
 8048480:	ff 35 f8 bf 04 08    	pushl  0x804bff8
 8048486:	ff 25 fc bf 04 08    	jmp    *0x804bffc
 804848c:	00 00                	add    %al,(%eax)
	...

08048490 <raise@plt>:
 8048490:	ff 25 00 c0 04 08    	jmp    *0x804c000
 8048496:	68 00 00 00 00       	push   $0x0
 804849b:	e9 e0 ff ff ff       	jmp    8048480 <raise@plt-0x10>

080484a0 <__isoc99_fscanf@plt>:
 80484a0:	ff 25 04 c0 04 08    	jmp    *0x804c004
 80484a6:	68 08 00 00 00       	push   $0x8
 80484ab:	e9 d0 ff ff ff       	jmp    8048480 <raise@plt-0x10>

080484b0 <fflush@plt>:
 80484b0:	ff 25 08 c0 04 08    	jmp    *0x804c008
 80484b6:	68 10 00 00 00       	push   $0x10
 80484bb:	e9 c0 ff ff ff       	jmp    8048480 <raise@plt-0x10>

080484c0 <__stack_chk_fail@plt>:
 80484c0:	ff 25 0c c0 04 08    	jmp    *0x804c00c
 80484c6:	68 18 00 00 00       	push   $0x18
 80484cb:	e9 b0 ff ff ff       	jmp    8048480 <raise@plt-0x10>

080484d0 <__gmon_start__@plt>:
 80484d0:	ff 25 10 c0 04 08    	jmp    *0x804c010
 80484d6:	68 20 00 00 00       	push   $0x20
 80484db:	e9 a0 ff ff ff       	jmp    8048480 <raise@plt-0x10>

080484e0 <feof@plt>:
 80484e0:	ff 25 14 c0 04 08    	jmp    *0x804c014
 80484e6:	68 28 00 00 00       	push   $0x28
 80484eb:	e9 90 ff ff ff       	jmp    8048480 <raise@plt-0x10>

080484f0 <__libc_start_main@plt>:
 80484f0:	ff 25 18 c0 04 08    	jmp    *0x804c018
 80484f6:	68 30 00 00 00       	push   $0x30
 80484fb:	e9 80 ff ff ff       	jmp    8048480 <raise@plt-0x10>

08048500 <fprintf@plt>:
 8048500:	ff 25 1c c0 04 08    	jmp    *0x804c01c
 8048506:	68 38 00 00 00       	push   $0x38
 804850b:	e9 70 ff ff ff       	jmp    8048480 <raise@plt-0x10>

08048510 <ungetc@plt>:
 8048510:	ff 25 20 c0 04 08    	jmp    *0x804c020
 8048516:	68 40 00 00 00       	push   $0x40
 804851b:	e9 60 ff ff ff       	jmp    8048480 <raise@plt-0x10>

08048520 <fgetc@plt>:
 8048520:	ff 25 24 c0 04 08    	jmp    *0x804c024
 8048526:	68 48 00 00 00       	push   $0x48
 804852b:	e9 50 ff ff ff       	jmp    8048480 <raise@plt-0x10>

08048530 <fputc@plt>:
 8048530:	ff 25 28 c0 04 08    	jmp    *0x804c028
 8048536:	68 50 00 00 00       	push   $0x50
 804853b:	e9 40 ff ff ff       	jmp    8048480 <raise@plt-0x10>

Disassembly of section .text:

08048540 <.text>:
 8048540:	31 ed                	xor    %ebp,%ebp
 8048542:	5e                   	pop    %esi
 8048543:	89 e1                	mov    %esp,%ecx
 8048545:	83 e4 f0             	and    $0xfffffff0,%esp
 8048548:	50                   	push   %eax
 8048549:	54                   	push   %esp
 804854a:	52                   	push   %edx
 804854b:	68 60 9d 04 08       	push   $0x8049d60
 8048550:	68 f0 9c 04 08       	push   $0x8049cf0
 8048555:	51                   	push   %ecx
 8048556:	56                   	push   %esi
 8048557:	68 82 9c 04 08       	push   $0x8049c82
 804855c:	e8 8f ff ff ff       	call   80484f0 <__libc_start_main@plt>
 8048561:	f4                   	hlt    
 8048562:	90                   	nop
 8048563:	90                   	nop
 8048564:	90                   	nop
 8048565:	90                   	nop
 8048566:	90                   	nop
 8048567:	90                   	nop
 8048568:	90                   	nop
 8048569:	90                   	nop
 804856a:	90                   	nop
 804856b:	90                   	nop
 804856c:	90                   	nop
 804856d:	90                   	nop
 804856e:	90                   	nop
 804856f:	90                   	nop
 8048570:	55                   	push   %ebp
 8048571:	89 e5                	mov    %esp,%ebp
 8048573:	53                   	push   %ebx
 8048574:	83 ec 04             	sub    $0x4,%esp
 8048577:	80 3d cc c0 06 08 00 	cmpb   $0x0,0x806c0cc
 804857e:	75 3f                	jne    80485bf <fputc@plt+0x8f>
 8048580:	a1 d0 c0 06 08       	mov    0x806c0d0,%eax
 8048585:	bb 20 bf 04 08       	mov    $0x804bf20,%ebx
 804858a:	81 eb 1c bf 04 08    	sub    $0x804bf1c,%ebx
 8048590:	c1 fb 02             	sar    $0x2,%ebx
 8048593:	83 eb 01             	sub    $0x1,%ebx
 8048596:	39 d8                	cmp    %ebx,%eax
 8048598:	73 1e                	jae    80485b8 <fputc@plt+0x88>
 804859a:	8d b6 00 00 00 00    	lea    0x0(%esi),%esi
 80485a0:	83 c0 01             	add    $0x1,%eax
 80485a3:	a3 d0 c0 06 08       	mov    %eax,0x806c0d0
 80485a8:	ff 14 85 1c bf 04 08 	call   *0x804bf1c(,%eax,4)
 80485af:	a1 d0 c0 06 08       	mov    0x806c0d0,%eax
 80485b4:	39 d8                	cmp    %ebx,%eax
 80485b6:	72 e8                	jb     80485a0 <fputc@plt+0x70>
 80485b8:	c6 05 cc c0 06 08 01 	movb   $0x1,0x806c0cc
 80485bf:	83 c4 04             	add    $0x4,%esp
 80485c2:	5b                   	pop    %ebx
 80485c3:	5d                   	pop    %ebp
 80485c4:	c3                   	ret    
 80485c5:	8d 74 26 00          	lea    0x0(%esi,%eiz,1),%esi
 80485c9:	8d bc 27 00 00 00 00 	lea    0x0(%edi,%eiz,1),%edi
 80485d0:	55                   	push   %ebp
 80485d1:	89 e5                	mov    %esp,%ebp
 80485d3:	83 ec 18             	sub    $0x18,%esp
 80485d6:	a1 24 bf 04 08       	mov    0x804bf24,%eax
 80485db:	85 c0                	test   %eax,%eax
 80485dd:	74 12                	je     80485f1 <fputc@plt+0xc1>
 80485df:	b8 00 00 00 00       	mov    $0x0,%eax
 80485e4:	85 c0                	test   %eax,%eax
 80485e6:	74 09                	je     80485f1 <fputc@plt+0xc1>
 80485e8:	c7 04 24 24 bf 04 08 	movl   $0x804bf24,(%esp)
 80485ef:	ff d0                	call   *%eax
 80485f1:	c9                   	leave  
 80485f2:	c3                   	ret    
 80485f3:	90                   	nop
 80485f4:	55                   	push   %ebp
 80485f5:	89 e5                	mov    %esp,%ebp
 80485f7:	83 ec 18             	sub    $0x18,%esp
 80485fa:	a1 c8 c0 06 08       	mov    0x806c0c8,%eax
 80485ff:	89 04 24             	mov    %eax,(%esp)
 8048602:	e8 d9 fe ff ff       	call   80484e0 <feof@plt>
 8048607:	85 c0                	test   %eax,%eax
 8048609:	74 0c                	je     8048617 <fputc@plt+0xe7>
 804860b:	c7 04 24 0b 00 00 00 	movl   $0xb,(%esp)
 8048612:	e8 79 fe ff ff       	call   8048490 <raise@plt>
 8048617:	c9                   	leave  
 8048618:	c3                   	ret    
 8048619:	55                   	push   %ebp
 804861a:	89 e5                	mov    %esp,%ebp
 804861c:	83 ec 28             	sub    $0x28,%esp
 804861f:	a1 c8 c0 06 08       	mov    0x806c0c8,%eax
 8048624:	89 04 24             	mov    %eax,(%esp)
 8048627:	e8 f4 fe ff ff       	call   8048520 <fgetc@plt>
 804862c:	89 45 f0             	mov    %eax,-0x10(%ebp)
 804862f:	a1 c8 c0 06 08       	mov    0x806c0c8,%eax
 8048634:	89 04 24             	mov    %eax,(%esp)
 8048637:	e8 a4 fe ff ff       	call   80484e0 <feof@plt>
 804863c:	85 c0                	test   %eax,%eax
 804863e:	0f 95 c0             	setne  %al
 8048641:	0f b6 c0             	movzbl %al,%eax
 8048644:	89 45 f4             	mov    %eax,-0xc(%ebp)
 8048647:	a1 c8 c0 06 08       	mov    0x806c0c8,%eax
 804864c:	89 44 24 04          	mov    %eax,0x4(%esp)
 8048650:	8b 45 f0             	mov    -0x10(%ebp),%eax
 8048653:	89 04 24             	mov    %eax,(%esp)
 8048656:	e8 b5 fe ff ff       	call   8048510 <ungetc@plt>
 804865b:	8b 45 f4             	mov    -0xc(%ebp),%eax
 804865e:	c9                   	leave  
 804865f:	c3                   	ret    
 8048660:	55                   	push   %ebp
 8048661:	89 e5                	mov    %esp,%ebp
 8048663:	8b 45 08             	mov    0x8(%ebp),%eax
 8048666:	8b 00                	mov    (%eax),%eax
 8048668:	5d                   	pop    %ebp
 8048669:	c3                   	ret    
 804866a:	55                   	push   %ebp
 804866b:	89 e5                	mov    %esp,%ebp
 804866d:	8b 45 08             	mov    0x8(%ebp),%eax
 8048670:	8b 00                	mov    (%eax),%eax
 8048672:	85 c0                	test   %eax,%eax
 8048674:	0f 95 c0             	setne  %al
 8048677:	0f b6 c0             	movzbl %al,%eax
 804867a:	5d                   	pop    %ebp
 804867b:	c3                   	ret    
 804867c:	55                   	push   %ebp
 804867d:	89 e5                	mov    %esp,%ebp
 804867f:	83 ec 18             	sub    $0x18,%esp
 8048682:	8b 15 c4 c0 06 08    	mov    0x806c0c4,%edx
 8048688:	8b 45 08             	mov    0x8(%ebp),%eax
 804868b:	8b 00                	mov    (%eax),%eax
 804868d:	89 54 24 04          	mov    %edx,0x4(%esp)
 8048691:	89 04 24             	mov    %eax,(%esp)
 8048694:	e8 97 fe ff ff       	call   8048530 <fputc@plt>
 8048699:	a1 c4 c0 06 08       	mov    0x806c0c4,%eax
 804869e:	89 04 24             	mov    %eax,(%esp)
 80486a1:	e8 0a fe ff ff       	call   80484b0 <fflush@plt>
 80486a6:	8b 45 08             	mov    0x8(%ebp),%eax
 80486a9:	8b 00                	mov    (%eax),%eax
 80486ab:	c9                   	leave  
 80486ac:	c3                   	ret    
 80486ad:	55                   	push   %ebp
 80486ae:	89 e5                	mov    %esp,%ebp
 80486b0:	83 ec 18             	sub    $0x18,%esp
 80486b3:	8b 45 08             	mov    0x8(%ebp),%eax
 80486b6:	8b 08                	mov    (%eax),%ecx
 80486b8:	ba c0 9d 04 08       	mov    $0x8049dc0,%edx
 80486bd:	a1 c4 c0 06 08       	mov    0x806c0c4,%eax
 80486c2:	89 4c 24 08          	mov    %ecx,0x8(%esp)
 80486c6:	89 54 24 04          	mov    %edx,0x4(%esp)
 80486ca:	89 04 24             	mov    %eax,(%esp)
 80486cd:	e8 2e fe ff ff       	call   8048500 <fprintf@plt>
 80486d2:	c9                   	leave  
 80486d3:	c3                   	ret    
 80486d4:	55                   	push   %ebp
 80486d5:	89 e5                	mov    %esp,%ebp
 80486d7:	83 ec 18             	sub    $0x18,%esp
 80486da:	8b 45 08             	mov    0x8(%ebp),%eax
 80486dd:	8b 08                	mov    (%eax),%ecx
 80486df:	ba c3 9d 04 08       	mov    $0x8049dc3,%edx
 80486e4:	a1 c4 c0 06 08       	mov    0x806c0c4,%eax
 80486e9:	89 4c 24 08          	mov    %ecx,0x8(%esp)
 80486ed:	89 54 24 04          	mov    %edx,0x4(%esp)
 80486f1:	89 04 24             	mov    %eax,(%esp)
 80486f4:	e8 07 fe ff ff       	call   8048500 <fprintf@plt>
 80486f9:	c9                   	leave  
 80486fa:	c3                   	ret    
 80486fb:	55                   	push   %ebp
 80486fc:	89 e5                	mov    %esp,%ebp
 80486fe:	83 ec 18             	sub    $0x18,%esp
 8048701:	8b 45 08             	mov    0x8(%ebp),%eax
 8048704:	89 04 24             	mov    %eax,(%esp)
 8048707:	e8 e8 fe ff ff       	call   80485f4 <fputc@plt+0xc4>
 804870c:	a1 c8 c0 06 08       	mov    0x806c0c8,%eax
 8048711:	89 04 24             	mov    %eax,(%esp)
 8048714:	e8 07 fe ff ff       	call   8048520 <fgetc@plt>
 8048719:	c9                   	leave  
 804871a:	c3                   	ret    
 804871b:	55                   	push   %ebp
 804871c:	89 e5                	mov    %esp,%ebp
 804871e:	83 ec 28             	sub    $0x28,%esp
 8048721:	8b 45 08             	mov    0x8(%ebp),%eax
 8048724:	89 04 24             	mov    %eax,(%esp)
 8048727:	e8 c8 fe ff ff       	call   80485f4 <fputc@plt+0xc4>
 804872c:	ba c0 9d 04 08       	mov    $0x8049dc0,%edx
 8048731:	a1 c8 c0 06 08       	mov    0x806c0c8,%eax
 8048736:	8d 4d f4             	lea    -0xc(%ebp),%ecx
 8048739:	89 4c 24 08          	mov    %ecx,0x8(%esp)
 804873d:	89 54 24 04          	mov    %edx,0x4(%esp)
 8048741:	89 04 24             	mov    %eax,(%esp)
 8048744:	e8 57 fd ff ff       	call   80484a0 <__isoc99_fscanf@plt>
 8048749:	8b 45 f4             	mov    -0xc(%ebp),%eax
 804874c:	c9                   	leave  
 804874d:	c3                   	ret    
 804874e:	55                   	push   %ebp
 804874f:	89 e5                	mov    %esp,%ebp
 8048751:	83 ec 28             	sub    $0x28,%esp
 8048754:	8b 45 08             	mov    0x8(%ebp),%eax
 8048757:	89 04 24             	mov    %eax,(%esp)
 804875a:	e8 95 fe ff ff       	call   80485f4 <fputc@plt+0xc4>
 804875f:	ba c8 9d 04 08       	mov    $0x8049dc8,%edx
 8048764:	a1 c8 c0 06 08       	mov    0x806c0c8,%eax
 8048769:	8d 4d f4             	lea    -0xc(%ebp),%ecx
 804876c:	89 4c 24 08          	mov    %ecx,0x8(%esp)
 8048770:	89 54 24 04          	mov    %edx,0x4(%esp)
 8048774:	89 04 24             	mov    %eax,(%esp)
 8048777:	e8 24 fd ff ff       	call   80484a0 <__isoc99_fscanf@plt>
 804877c:	8b 45 f4             	mov    -0xc(%ebp),%eax
 804877f:	c9                   	leave  
 8048780:	c3                   	ret    
 8048781:	55                   	push   %ebp
 8048782:	89 e5                	mov    %esp,%ebp
 8048784:	83 ec 14             	sub    $0x14,%esp
 8048787:	8b 45 08             	mov    0x8(%ebp),%eax
 804878a:	89 45 fc             	mov    %eax,-0x4(%ebp)
 804878d:	8b 45 fc             	mov    -0x4(%ebp),%eax
 8048790:	89 45 ec             	mov    %eax,-0x14(%ebp)
 8048793:	d9 45 ec             	flds   -0x14(%ebp)
 8048796:	c9                   	leave  
 8048797:	c3                   	ret    
 8048798:	55                   	push   %ebp
 8048799:	89 e5                	mov    %esp,%ebp
 804879b:	83 ec 10             	sub    $0x10,%esp
 804879e:	8b 45 08             	mov    0x8(%ebp),%eax
 80487a1:	89 45 fc             	mov    %eax,-0x4(%ebp)
 80487a4:	8b 45 fc             	mov    -0x4(%ebp),%eax
 80487a7:	c9                   	leave  
 80487a8:	c3                   	ret    
 80487a9:	55                   	push   %ebp
 80487aa:	89 e5                	mov    %esp,%ebp
 80487ac:	83 ec 18             	sub    $0x18,%esp
 80487af:	8b 45 08             	mov    0x8(%ebp),%eax
 80487b2:	8b 00                	mov    (%eax),%eax
 80487b4:	89 04 24             	mov    %eax,(%esp)
 80487b7:	e8 c5 ff ff ff       	call   8048781 <fputc@plt+0x251>
 80487bc:	ba cc 9d 04 08       	mov    $0x8049dcc,%edx
 80487c1:	a1 c4 c0 06 08       	mov    0x806c0c4,%eax
 80487c6:	dd 5c 24 08          	fstpl  0x8(%esp)
 80487ca:	89 54 24 04          	mov    %edx,0x4(%esp)
 80487ce:	89 04 24             	mov    %eax,(%esp)
 80487d1:	e8 2a fd ff ff       	call   8048500 <fprintf@plt>
 80487d6:	c9                   	leave  
 80487d7:	c3                   	ret    
 80487d8:	55                   	push   %ebp
 80487d9:	89 e5                	mov    %esp,%ebp
 80487db:	83 ec 28             	sub    $0x28,%esp
 80487de:	8b 45 08             	mov    0x8(%ebp),%eax
 80487e1:	89 04 24             	mov    %eax,(%esp)
 80487e4:	e8 0b fe ff ff       	call   80485f4 <fputc@plt+0xc4>
 80487e9:	ba cf 9d 04 08       	mov    $0x8049dcf,%edx
 80487ee:	a1 c8 c0 06 08       	mov    0x806c0c8,%eax
 80487f3:	8d 4d f4             	lea    -0xc(%ebp),%ecx
 80487f6:	89 4c 24 08          	mov    %ecx,0x8(%esp)
 80487fa:	89 54 24 04          	mov    %edx,0x4(%esp)
 80487fe:	89 04 24             	mov    %eax,(%esp)
 8048801:	e8 9a fc ff ff       	call   80484a0 <__isoc99_fscanf@plt>
 8048806:	8b 45 f4             	mov    -0xc(%ebp),%eax
 8048809:	89 04 24             	mov    %eax,(%esp)
 804880c:	e8 87 ff ff ff       	call   8048798 <fputc@plt+0x268>
 8048811:	c9                   	leave  
 8048812:	c3                   	ret    
 8048813:	55                   	push   %ebp
 8048814:	89 e5                	mov    %esp,%ebp
 8048816:	83 ec 0c             	sub    $0xc,%esp
 8048819:	8b 45 08             	mov    0x8(%ebp),%eax
 804881c:	8b 00                	mov    (%eax),%eax
 804881e:	89 45 f8             	mov    %eax,-0x8(%ebp)
 8048821:	db 45 f8             	fildl  -0x8(%ebp)
 8048824:	d9 5d fc             	fstps  -0x4(%ebp)
 8048827:	d9 45 fc             	flds   -0x4(%ebp)
 804882a:	d9 1c 24             	fstps  (%esp)
 804882d:	e8 66 ff ff ff       	call   8048798 <fputc@plt+0x268>
 8048832:	c9                   	leave  
 8048833:	c3                   	ret    
 8048834:	55                   	push   %ebp
 8048835:	89 e5                	mov    %esp,%ebp
 8048837:	83 ec 0c             	sub    $0xc,%esp
 804883a:	8b 45 08             	mov    0x8(%ebp),%eax
 804883d:	d9 00                	flds   (%eax)
 804883f:	d9 7d fe             	fnstcw -0x2(%ebp)
 8048842:	0f b7 45 fe          	movzwl -0x2(%ebp),%eax
 8048846:	b4 0c                	mov    $0xc,%ah
 8048848:	66 89 45 fc          	mov    %ax,-0x4(%ebp)
 804884c:	d9 6d fc             	fldcw  -0x4(%ebp)
 804884f:	db 5d f8             	fistpl -0x8(%ebp)
 8048852:	d9 6d fe             	fldcw  -0x2(%ebp)
 8048855:	8b 45 f8             	mov    -0x8(%ebp),%eax
 8048858:	89 04 24             	mov    %eax,(%esp)
 804885b:	e8 21 ff ff ff       	call   8048781 <fputc@plt+0x251>
 8048860:	d9 7d fe             	fnstcw -0x2(%ebp)
 8048863:	0f b7 45 fe          	movzwl -0x2(%ebp),%eax
 8048867:	b4 0c                	mov    $0xc,%ah
 8048869:	66 89 45 fc          	mov    %ax,-0x4(%ebp)
 804886d:	d9 6d fc             	fldcw  -0x4(%ebp)
 8048870:	db 5d f8             	fistpl -0x8(%ebp)
 8048873:	d9 6d fe             	fldcw  -0x2(%ebp)
 8048876:	8b 45 f8             	mov    -0x8(%ebp),%eax
 8048879:	c9                   	leave  
 804887a:	c3                   	ret    
 804887b:	55                   	push   %ebp
 804887c:	89 e5                	mov    %esp,%ebp
 804887e:	83 ec 14             	sub    $0x14,%esp
 8048881:	8b 45 08             	mov    0x8(%ebp),%eax
 8048884:	8b 00                	mov    (%eax),%eax
 8048886:	89 04 24             	mov    %eax,(%esp)
 8048889:	e8 f3 fe ff ff       	call   8048781 <fputc@plt+0x251>
 804888e:	db 7d f0             	fstpt  -0x10(%ebp)
 8048891:	8b 45 08             	mov    0x8(%ebp),%eax
 8048894:	83 c0 04             	add    $0x4,%eax
 8048897:	8b 00                	mov    (%eax),%eax
 8048899:	89 04 24             	mov    %eax,(%esp)
 804889c:	e8 e0 fe ff ff       	call   8048781 <fputc@plt+0x251>
 80488a1:	db 6d f0             	fldt   -0x10(%ebp)
 80488a4:	de c1                	faddp  %st,%st(1)
 80488a6:	d9 5d fc             	fstps  -0x4(%ebp)
 80488a9:	d9 45 fc             	flds   -0x4(%ebp)
 80488ac:	d9 1c 24             	fstps  (%esp)
 80488af:	e8 e4 fe ff ff       	call   8048798 <fputc@plt+0x268>
 80488b4:	c9                   	leave  
 80488b5:	c3                   	ret    
 80488b6:	55                   	push   %ebp
 80488b7:	89 e5                	mov    %esp,%ebp
 80488b9:	83 ec 14             	sub    $0x14,%esp
 80488bc:	8b 45 08             	mov    0x8(%ebp),%eax
 80488bf:	8b 00                	mov    (%eax),%eax
 80488c1:	89 04 24             	mov    %eax,(%esp)
 80488c4:	e8 b8 fe ff ff       	call   8048781 <fputc@plt+0x251>
 80488c9:	db 7d f0             	fstpt  -0x10(%ebp)
 80488cc:	8b 45 08             	mov    0x8(%ebp),%eax
 80488cf:	83 c0 04             	add    $0x4,%eax
 80488d2:	8b 00                	mov    (%eax),%eax
 80488d4:	89 04 24             	mov    %eax,(%esp)
 80488d7:	e8 a5 fe ff ff       	call   8048781 <fputc@plt+0x251>
 80488dc:	db 6d f0             	fldt   -0x10(%ebp)
 80488df:	de e1                	fsubp  %st,%st(1)
 80488e1:	d9 5d fc             	fstps  -0x4(%ebp)
 80488e4:	d9 45 fc             	flds   -0x4(%ebp)
 80488e7:	d9 1c 24             	fstps  (%esp)
 80488ea:	e8 a9 fe ff ff       	call   8048798 <fputc@plt+0x268>
 80488ef:	c9                   	leave  
 80488f0:	c3                   	ret    
 80488f1:	55                   	push   %ebp
 80488f2:	89 e5                	mov    %esp,%ebp
 80488f4:	83 ec 14             	sub    $0x14,%esp
 80488f7:	8b 45 08             	mov    0x8(%ebp),%eax
 80488fa:	8b 00                	mov    (%eax),%eax
 80488fc:	89 04 24             	mov    %eax,(%esp)
 80488ff:	e8 7d fe ff ff       	call   8048781 <fputc@plt+0x251>
 8048904:	db 7d f0             	fstpt  -0x10(%ebp)
 8048907:	8b 45 08             	mov    0x8(%ebp),%eax
 804890a:	83 c0 04             	add    $0x4,%eax
 804890d:	8b 00                	mov    (%eax),%eax
 804890f:	89 04 24             	mov    %eax,(%esp)
 8048912:	e8 6a fe ff ff       	call   8048781 <fputc@plt+0x251>
 8048917:	db 6d f0             	fldt   -0x10(%ebp)
 804891a:	de c9                	fmulp  %st,%st(1)
 804891c:	d9 5d fc             	fstps  -0x4(%ebp)
 804891f:	d9 45 fc             	flds   -0x4(%ebp)
 8048922:	d9 1c 24             	fstps  (%esp)
 8048925:	e8 6e fe ff ff       	call   8048798 <fputc@plt+0x268>
 804892a:	c9                   	leave  
 804892b:	c3                   	ret    
 804892c:	55                   	push   %ebp
 804892d:	89 e5                	mov    %esp,%ebp
 804892f:	83 ec 14             	sub    $0x14,%esp
 8048932:	8b 45 08             	mov    0x8(%ebp),%eax
 8048935:	8b 00                	mov    (%eax),%eax
 8048937:	89 04 24             	mov    %eax,(%esp)
 804893a:	e8 42 fe ff ff       	call   8048781 <fputc@plt+0x251>
 804893f:	db 7d f0             	fstpt  -0x10(%ebp)
 8048942:	8b 45 08             	mov    0x8(%ebp),%eax
 8048945:	83 c0 04             	add    $0x4,%eax
 8048948:	8b 00                	mov    (%eax),%eax
 804894a:	89 04 24             	mov    %eax,(%esp)
 804894d:	e8 2f fe ff ff       	call   8048781 <fputc@plt+0x251>
 8048952:	db 6d f0             	fldt   -0x10(%ebp)
 8048955:	de f1                	fdivp  %st,%st(1)
 8048957:	d9 5d fc             	fstps  -0x4(%ebp)
 804895a:	d9 45 fc             	flds   -0x4(%ebp)
 804895d:	d9 1c 24             	fstps  (%esp)
 8048960:	e8 33 fe ff ff       	call   8048798 <fputc@plt+0x268>
 8048965:	c9                   	leave  
 8048966:	c3                   	ret    
 8048967:	55                   	push   %ebp
 8048968:	89 e5                	mov    %esp,%ebp
 804896a:	83 ec 10             	sub    $0x10,%esp
 804896d:	a1 c0 c0 06 08       	mov    0x806c0c0,%eax
 8048972:	89 45 fc             	mov    %eax,-0x4(%ebp)
 8048975:	8b 45 08             	mov    0x8(%ebp),%eax
 8048978:	8b 10                	mov    (%eax),%edx
 804897a:	a1 c0 c0 06 08       	mov    0x806c0c0,%eax
 804897f:	01 d0                	add    %edx,%eax
 8048981:	a3 c0 c0 06 08       	mov    %eax,0x806c0c0
 8048986:	8b 45 fc             	mov    -0x4(%ebp),%eax
 8048989:	c9                   	leave  
 804898a:	c3                   	ret    
 804898b:	55                   	push   %ebp
 804898c:	89 e5                	mov    %esp,%ebp
 804898e:	81 ec c8 00 00 00    	sub    $0xc8,%esp
 8048994:	c7 45 cc 00 10 00 00 	movl   $0x1000,-0x34(%ebp)
 804899b:	83 7d 08 00          	cmpl   $0x0,0x8(%ebp)
 804899f:	74 2a                	je     80489cb <fputc@plt+0x49b>
 80489a1:	c7 45 d0 00 00 00 00 	movl   $0x0,-0x30(%ebp)
 80489a8:	eb 19                	jmp    80489c3 <fputc@plt+0x493>
 80489aa:	8b 45 d0             	mov    -0x30(%ebp),%eax
 80489ad:	c1 e0 02             	shl    $0x2,%eax
 80489b0:	03 45 08             	add    0x8(%ebp),%eax
 80489b3:	8b 10                	mov    (%eax),%edx
 80489b5:	8b 45 d0             	mov    -0x30(%ebp),%eax
 80489b8:	89 94 85 4c ff ff ff 	mov    %edx,-0xb4(%ebp,%eax,4)
 80489bf:	83 45 d0 01          	addl   $0x1,-0x30(%ebp)
 80489c3:	83 7d d0 1e          	cmpl   $0x1e,-0x30(%ebp)
 80489c7:	7e e1                	jle    80489aa <fputc@plt+0x47a>
 80489c9:	eb 21                	jmp    80489ec <fputc@plt+0x4bc>
 80489cb:	c7 45 d4 00 00 00 00 	movl   $0x0,-0x2c(%ebp)
 80489d2:	eb 12                	jmp    80489e6 <fputc@plt+0x4b6>
 80489d4:	8b 45 d4             	mov    -0x2c(%ebp),%eax
 80489d7:	c7 84 85 4c ff ff ff 	movl   $0x0,-0xb4(%ebp,%eax,4)
 80489de:	00 00 00 00 
 80489e2:	83 45 d4 01          	addl   $0x1,-0x2c(%ebp)
 80489e6:	83 7d d4 1e          	cmpl   $0x1e,-0x2c(%ebp)
 80489ea:	7e e8                	jle    80489d4 <fputc@plt+0x4a4>
 80489ec:	c7 45 c8 00 f0 00 00 	movl   $0xf000,-0x38(%ebp)
 80489f3:	c7 45 d8 00 00 00 00 	movl   $0x0,-0x28(%ebp)
 80489fa:	c7 45 ec 00 00 00 00 	movl   $0x0,-0x14(%ebp)
 8048a01:	c7 45 f0 00 00 00 00 	movl   $0x0,-0x10(%ebp)
 8048a08:	c7 45 f4 00 00 00 00 	movl   $0x0,-0xc(%ebp)
 8048a0f:	c7 45 e8 00 00 00 00 	movl   $0x0,-0x18(%ebp)
 8048a16:	8b 45 e8             	mov    -0x18(%ebp),%eax
 8048a19:	89 45 e4             	mov    %eax,-0x1c(%ebp)
 8048a1c:	8b 45 e4             	mov    -0x1c(%ebp),%eax
 8048a1f:	89 45 e0             	mov    %eax,-0x20(%ebp)
 8048a22:	8b 45 e0             	mov    -0x20(%ebp),%eax
 8048a25:	89 45 dc             	mov    %eax,-0x24(%ebp)
 8048a28:	e9 3a 12 00 00       	jmp    8049c67 <fputc@plt+0x1737>
 8048a2d:	8b 45 cc             	mov    -0x34(%ebp),%eax
 8048a30:	05 c0 c0 04 08       	add    $0x804c0c0,%eax
 8048a35:	0f b6 00             	movzbl (%eax),%eax
 8048a38:	0f be c0             	movsbl %al,%eax
 8048a3b:	83 f8 20             	cmp    $0x20,%eax
 8048a3e:	0f 87 1e 12 00 00    	ja     8049c62 <fputc@plt+0x1732>
 8048a44:	8b 04 85 d4 9d 04 08 	mov    0x8049dd4(,%eax,4),%eax
 8048a4b:	ff e0                	jmp    *%eax
 8048a4d:	83 45 cc 01          	addl   $0x1,-0x34(%ebp)
 8048a51:	e9 11 12 00 00       	jmp    8049c67 <fputc@plt+0x1737>
 8048a56:	8b 45 c8             	mov    -0x38(%ebp),%eax
 8048a59:	05 c0 c0 04 08       	add    $0x804c0c0,%eax
 8048a5e:	8b 00                	mov    (%eax),%eax
 8048a60:	89 45 ec             	mov    %eax,-0x14(%ebp)
 8048a63:	83 7d ec 00          	cmpl   $0x0,-0x14(%ebp)
 8048a67:	75 0b                	jne    8048a74 <fputc@plt+0x544>
 8048a69:	8b 85 4c ff ff ff    	mov    -0xb4(%ebp),%eax
 8048a6f:	e9 0c 12 00 00       	jmp    8049c80 <fputc@plt+0x1750>
 8048a74:	8b 45 c8             	mov    -0x38(%ebp),%eax
 8048a77:	83 c0 04             	add    $0x4,%eax
 8048a7a:	89 45 c8             	mov    %eax,-0x38(%ebp)
 8048a7d:	8b 45 ec             	mov    -0x14(%ebp),%eax
 8048a80:	89 45 cc             	mov    %eax,-0x34(%ebp)
 8048a83:	c7 45 d8 00 00 00 00 	movl   $0x0,-0x28(%ebp)
 8048a8a:	e9 d8 11 00 00       	jmp    8049c67 <fputc@plt+0x1737>
 8048a8f:	8b 45 cc             	mov    -0x34(%ebp),%eax
 8048a92:	83 c0 01             	add    $0x1,%eax
 8048a95:	0f b6 80 c0 c0 04 08 	movzbl 0x804c0c0(%eax),%eax
 8048a9c:	0f be c0             	movsbl %al,%eax
 8048a9f:	89 45 f4             	mov    %eax,-0xc(%ebp)
 8048aa2:	8b 45 cc             	mov    -0x34(%ebp),%eax
 8048aa5:	83 c0 02             	add    $0x2,%eax
 8048aa8:	0f b6 80 c0 c0 04 08 	movzbl 0x804c0c0(%eax),%eax
 8048aaf:	0f be c0             	movsbl %al,%eax
 8048ab2:	89 45 dc             	mov    %eax,-0x24(%ebp)
 8048ab5:	8b 45 f4             	mov    -0xc(%ebp),%eax
 8048ab8:	83 f8 01             	cmp    $0x1,%eax
 8048abb:	74 5e                	je     8048b1b <fputc@plt+0x5eb>
 8048abd:	83 f8 01             	cmp    $0x1,%eax
 8048ac0:	7f 09                	jg     8048acb <fputc@plt+0x59b>
 8048ac2:	85 c0                	test   %eax,%eax
 8048ac4:	74 18                	je     8048ade <fputc@plt+0x5ae>
 8048ac6:	e9 d5 00 00 00       	jmp    8048ba0 <fputc@plt+0x670>
 8048acb:	83 f8 02             	cmp    $0x2,%eax
 8048ace:	74 7b                	je     8048b4b <fputc@plt+0x61b>
 8048ad0:	83 f8 04             	cmp    $0x4,%eax
 8048ad3:	0f 84 a2 00 00 00    	je     8048b7b <fputc@plt+0x64b>
 8048ad9:	e9 c2 00 00 00       	jmp    8048ba0 <fputc@plt+0x670>
 8048ade:	8b 45 cc             	mov    -0x34(%ebp),%eax
 8048ae1:	83 c0 03             	add    $0x3,%eax
 8048ae4:	0f b6 80 c0 c0 04 08 	movzbl 0x804c0c0(%eax),%eax
 8048aeb:	0f be c0             	movsbl %al,%eax
 8048aee:	8b 84 85 4c ff ff ff 	mov    -0xb4(%ebp,%eax,4),%eax
 8048af5:	89 45 e0             	mov    %eax,-0x20(%ebp)
 8048af8:	8b 45 cc             	mov    -0x34(%ebp),%eax
 8048afb:	83 c0 04             	add    $0x4,%eax
 8048afe:	0f b6 80 c0 c0 04 08 	movzbl 0x804c0c0(%eax),%eax
 8048b05:	0f be c0             	movsbl %al,%eax
 8048b08:	8b 84 85 4c ff ff ff 	mov    -0xb4(%ebp,%eax,4),%eax
 8048b0f:	89 45 e4             	mov    %eax,-0x1c(%ebp)
 8048b12:	83 45 cc 05          	addl   $0x5,-0x34(%ebp)
 8048b16:	e9 85 00 00 00       	jmp    8048ba0 <fputc@plt+0x670>
 8048b1b:	8b 45 cc             	mov    -0x34(%ebp),%eax
 8048b1e:	83 c0 03             	add    $0x3,%eax
 8048b21:	0f b6 80 c0 c0 04 08 	movzbl 0x804c0c0(%eax),%eax
 8048b28:	0f be c0             	movsbl %al,%eax
 8048b2b:	8b 84 85 4c ff ff ff 	mov    -0xb4(%ebp,%eax,4),%eax
 8048b32:	89 45 e0             	mov    %eax,-0x20(%ebp)
 8048b35:	8b 45 cc             	mov    -0x34(%ebp),%eax
 8048b38:	83 c0 04             	add    $0x4,%eax
 8048b3b:	05 c0 c0 04 08       	add    $0x804c0c0,%eax
 8048b40:	8b 00                	mov    (%eax),%eax
 8048b42:	89 45 e4             	mov    %eax,-0x1c(%ebp)
 8048b45:	83 45 cc 08          	addl   $0x8,-0x34(%ebp)
 8048b49:	eb 55                	jmp    8048ba0 <fputc@plt+0x670>
 8048b4b:	8b 45 cc             	mov    -0x34(%ebp),%eax
 8048b4e:	83 c0 03             	add    $0x3,%eax
 8048b51:	05 c0 c0 04 08       	add    $0x804c0c0,%eax
 8048b56:	8b 00                	mov    (%eax),%eax
 8048b58:	89 45 e0             	mov    %eax,-0x20(%ebp)
 8048b5b:	8b 45 cc             	mov    -0x34(%ebp),%eax
 8048b5e:	83 c0 07             	add    $0x7,%eax
 8048b61:	0f b6 80 c0 c0 04 08 	movzbl 0x804c0c0(%eax),%eax
 8048b68:	0f be c0             	movsbl %al,%eax
 8048b6b:	8b 84 85 4c ff ff ff 	mov    -0xb4(%ebp,%eax,4),%eax
 8048b72:	89 45 e4             	mov    %eax,-0x1c(%ebp)
 8048b75:	83 45 cc 08          	addl   $0x8,-0x34(%ebp)
 8048b79:	eb 25                	jmp    8048ba0 <fputc@plt+0x670>
 8048b7b:	8b 45 cc             	mov    -0x34(%ebp),%eax
 8048b7e:	83 c0 03             	add    $0x3,%eax
 8048b81:	05 c0 c0 04 08       	add    $0x804c0c0,%eax
 8048b86:	8b 00                	mov    (%eax),%eax
 8048b88:	89 45 e0             	mov    %eax,-0x20(%ebp)
 8048b8b:	8b 45 cc             	mov    -0x34(%ebp),%eax
 8048b8e:	83 c0 07             	add    $0x7,%eax
 8048b91:	05 c0 c0 04 08       	add    $0x804c0c0,%eax
 8048b96:	8b 00                	mov    (%eax),%eax
 8048b98:	89 45 e4             	mov    %eax,-0x1c(%ebp)
 8048b9b:	83 45 cc 0b          	addl   $0xb,-0x34(%ebp)
 8048b9f:	90                   	nop
 8048ba0:	8b 45 e4             	mov    -0x1c(%ebp),%eax
 8048ba3:	8b 55 e0             	mov    -0x20(%ebp),%edx
 8048ba6:	01 c2                	add    %eax,%edx
 8048ba8:	8b 45 dc             	mov    -0x24(%ebp),%eax
 8048bab:	89 94 85 4c ff ff ff 	mov    %edx,-0xb4(%ebp,%eax,4)
 8048bb2:	8b 45 dc             	mov    -0x24(%ebp),%eax
 8048bb5:	8b 84 85 4c ff ff ff 	mov    -0xb4(%ebp,%eax,4),%eax
 8048bbc:	89 45 d8             	mov    %eax,-0x28(%ebp)
 8048bbf:	e9 a3 10 00 00       	jmp    8049c67 <fputc@plt+0x1737>
 8048bc4:	8b 45 cc             	mov    -0x34(%ebp),%eax
 8048bc7:	83 c0 01             	add    $0x1,%eax
 8048bca:	0f b6 80 c0 c0 04 08 	movzbl 0x804c0c0(%eax),%eax
 8048bd1:	0f be c0             	movsbl %al,%eax
 8048bd4:	89 45 f4             	mov    %eax,-0xc(%ebp)
 8048bd7:	8b 45 cc             	mov    -0x34(%ebp),%eax
 8048bda:	83 c0 02             	add    $0x2,%eax
 8048bdd:	0f b6 80 c0 c0 04 08 	movzbl 0x804c0c0(%eax),%eax
 8048be4:	0f be c0             	movsbl %al,%eax
 8048be7:	89 45 dc             	mov    %eax,-0x24(%ebp)
 8048bea:	8b 45 f4             	mov    -0xc(%ebp),%eax
 8048bed:	83 f8 01             	cmp    $0x1,%eax
 8048bf0:	74 5e                	je     8048c50 <fputc@plt+0x720>
 8048bf2:	83 f8 01             	cmp    $0x1,%eax
 8048bf5:	7f 09                	jg     8048c00 <fputc@plt+0x6d0>
 8048bf7:	85 c0                	test   %eax,%eax
 8048bf9:	74 18                	je     8048c13 <fputc@plt+0x6e3>
 8048bfb:	e9 d5 00 00 00       	jmp    8048cd5 <fputc@plt+0x7a5>
 8048c00:	83 f8 02             	cmp    $0x2,%eax
 8048c03:	74 7b                	je     8048c80 <fputc@plt+0x750>
 8048c05:	83 f8 04             	cmp    $0x4,%eax
 8048c08:	0f 84 a2 00 00 00    	je     8048cb0 <fputc@plt+0x780>
 8048c0e:	e9 c2 00 00 00       	jmp    8048cd5 <fputc@plt+0x7a5>
 8048c13:	8b 45 cc             	mov    -0x34(%ebp),%eax
 8048c16:	83 c0 03             	add    $0x3,%eax
 8048c19:	0f b6 80 c0 c0 04 08 	movzbl 0x804c0c0(%eax),%eax
 8048c20:	0f be c0             	movsbl %al,%eax
 8048c23:	8b 84 85 4c ff ff ff 	mov    -0xb4(%ebp,%eax,4),%eax
 8048c2a:	89 45 e0             	mov    %eax,-0x20(%ebp)
 8048c2d:	8b 45 cc             	mov    -0x34(%ebp),%eax
 8048c30:	83 c0 04             	add    $0x4,%eax
 8048c33:	0f b6 80 c0 c0 04 08 	movzbl 0x804c0c0(%eax),%eax
 8048c3a:	0f be c0             	movsbl %al,%eax
 8048c3d:	8b 84 85 4c ff ff ff 	mov    -0xb4(%ebp,%eax,4),%eax
 8048c44:	89 45 e4             	mov    %eax,-0x1c(%ebp)
 8048c47:	83 45 cc 05          	addl   $0x5,-0x34(%ebp)
 8048c4b:	e9 85 00 00 00       	jmp    8048cd5 <fputc@plt+0x7a5>
 8048c50:	8b 45 cc             	mov    -0x34(%ebp),%eax
 8048c53:	83 c0 03             	add    $0x3,%eax
 8048c56:	0f b6 80 c0 c0 04 08 	movzbl 0x804c0c0(%eax),%eax
 8048c5d:	0f be c0             	movsbl %al,%eax
 8048c60:	8b 84 85 4c ff ff ff 	mov    -0xb4(%ebp,%eax,4),%eax
 8048c67:	89 45 e0             	mov    %eax,-0x20(%ebp)
 8048c6a:	8b 45 cc             	mov    -0x34(%ebp),%eax
 8048c6d:	83 c0 04             	add    $0x4,%eax
 8048c70:	05 c0 c0 04 08       	add    $0x804c0c0,%eax
 8048c75:	8b 00                	mov    (%eax),%eax
 8048c77:	89 45 e4             	mov    %eax,-0x1c(%ebp)
 8048c7a:	83 45 cc 08          	addl   $0x8,-0x34(%ebp)
 8048c7e:	eb 55                	jmp    8048cd5 <fputc@plt+0x7a5>
 8048c80:	8b 45 cc             	mov    -0x34(%ebp),%eax
 8048c83:	83 c0 03             	add    $0x3,%eax
 8048c86:	05 c0 c0 04 08       	add    $0x804c0c0,%eax
 8048c8b:	8b 00                	mov    (%eax),%eax
 8048c8d:	89 45 e0             	mov    %eax,-0x20(%ebp)
 8048c90:	8b 45 cc             	mov    -0x34(%ebp),%eax
 8048c93:	83 c0 07             	add    $0x7,%eax
 8048c96:	0f b6 80 c0 c0 04 08 	movzbl 0x804c0c0(%eax),%eax
 8048c9d:	0f be c0             	movsbl %al,%eax
 8048ca0:	8b 84 85 4c ff ff ff 	mov    -0xb4(%ebp,%eax,4),%eax
 8048ca7:	89 45 e4             	mov    %eax,-0x1c(%ebp)
 8048caa:	83 45 cc 08          	addl   $0x8,-0x34(%ebp)
 8048cae:	eb 25                	jmp    8048cd5 <fputc@plt+0x7a5>
 8048cb0:	8b 45 cc             	mov    -0x34(%ebp),%eax
 8048cb3:	83 c0 03             	add    $0x3,%eax
 8048cb6:	05 c0 c0 04 08       	add    $0x804c0c0,%eax
 8048cbb:	8b 00                	mov    (%eax),%eax
 8048cbd:	89 45 e0             	mov    %eax,-0x20(%ebp)
 8048cc0:	8b 45 cc             	mov    -0x34(%ebp),%eax
 8048cc3:	83 c0 07             	add    $0x7,%eax
 8048cc6:	05 c0 c0 04 08       	add    $0x804c0c0,%eax
 8048ccb:	8b 00                	mov    (%eax),%eax
 8048ccd:	89 45 e4             	mov    %eax,-0x1c(%ebp)
 8048cd0:	83 45 cc 0b          	addl   $0xb,-0x34(%ebp)
 8048cd4:	90                   	nop
 8048cd5:	8b 45 e4             	mov    -0x1c(%ebp),%eax
 8048cd8:	8b 55 e0             	mov    -0x20(%ebp),%edx
 8048cdb:	29 c2                	sub    %eax,%edx
 8048cdd:	8b 45 dc             	mov    -0x24(%ebp),%eax
 8048ce0:	89 94 85 4c ff ff ff 	mov    %edx,-0xb4(%ebp,%eax,4)
 8048ce7:	8b 45 dc             	mov    -0x24(%ebp),%eax
 8048cea:	8b 84 85 4c ff ff ff 	mov    -0xb4(%ebp,%eax,4),%eax
 8048cf1:	89 45 d8             	mov    %eax,-0x28(%ebp)
 8048cf4:	e9 6e 0f 00 00       	jmp    8049c67 <fputc@plt+0x1737>
 8048cf9:	8b 45 cc             	mov    -0x34(%ebp),%eax
 8048cfc:	83 c0 01             	add    $0x1,%eax
 8048cff:	0f b6 80 c0 c0 04 08 	movzbl 0x804c0c0(%eax),%eax
 8048d06:	0f be c0             	movsbl %al,%eax
 8048d09:	89 45 f4             	mov    %eax,-0xc(%ebp)
 8048d0c:	8b 45 cc             	mov    -0x34(%ebp),%eax
 8048d0f:	83 c0 02             	add    $0x2,%eax
 8048d12:	0f b6 80 c0 c0 04 08 	movzbl 0x804c0c0(%eax),%eax
 8048d19:	0f be c0             	movsbl %al,%eax
 8048d1c:	89 45 dc             	mov    %eax,-0x24(%ebp)
 8048d1f:	8b 45 f4             	mov    -0xc(%ebp),%eax
 8048d22:	83 f8 01             	cmp    $0x1,%eax
 8048d25:	74 5e                	je     8048d85 <fputc@plt+0x855>
 8048d27:	83 f8 01             	cmp    $0x1,%eax
 8048d2a:	7f 09                	jg     8048d35 <fputc@plt+0x805>
 8048d2c:	85 c0                	test   %eax,%eax
 8048d2e:	74 18                	je     8048d48 <fputc@plt+0x818>
 8048d30:	e9 d5 00 00 00       	jmp    8048e0a <fputc@plt+0x8da>
 8048d35:	83 f8 02             	cmp    $0x2,%eax
 8048d38:	74 7b                	je     8048db5 <fputc@plt+0x885>
 8048d3a:	83 f8 04             	cmp    $0x4,%eax
 8048d3d:	0f 84 a2 00 00 00    	je     8048de5 <fputc@plt+0x8b5>
 8048d43:	e9 c2 00 00 00       	jmp    8048e0a <fputc@plt+0x8da>
 8048d48:	8b 45 cc             	mov    -0x34(%ebp),%eax
 8048d4b:	83 c0 03             	add    $0x3,%eax
 8048d4e:	0f b6 80 c0 c0 04 08 	movzbl 0x804c0c0(%eax),%eax
 8048d55:	0f be c0             	movsbl %al,%eax
 8048d58:	8b 84 85 4c ff ff ff 	mov    -0xb4(%ebp,%eax,4),%eax
 8048d5f:	89 45 e0             	mov    %eax,-0x20(%ebp)
 8048d62:	8b 45 cc             	mov    -0x34(%ebp),%eax
 8048d65:	83 c0 04             	add    $0x4,%eax
 8048d68:	0f b6 80 c0 c0 04 08 	movzbl 0x804c0c0(%eax),%eax
 8048d6f:	0f be c0             	movsbl %al,%eax
 8048d72:	8b 84 85 4c ff ff ff 	mov    -0xb4(%ebp,%eax,4),%eax
 8048d79:	89 45 e4             	mov    %eax,-0x1c(%ebp)
 8048d7c:	83 45 cc 05          	addl   $0x5,-0x34(%ebp)
 8048d80:	e9 85 00 00 00       	jmp    8048e0a <fputc@plt+0x8da>
 8048d85:	8b 45 cc             	mov    -0x34(%ebp),%eax
 8048d88:	83 c0 03             	add    $0x3,%eax
 8048d8b:	0f b6 80 c0 c0 04 08 	movzbl 0x804c0c0(%eax),%eax
 8048d92:	0f be c0             	movsbl %al,%eax
 8048d95:	8b 84 85 4c ff ff ff 	mov    -0xb4(%ebp,%eax,4),%eax
 8048d9c:	89 45 e0             	mov    %eax,-0x20(%ebp)
 8048d9f:	8b 45 cc             	mov    -0x34(%ebp),%eax
 8048da2:	83 c0 04             	add    $0x4,%eax
 8048da5:	05 c0 c0 04 08       	add    $0x804c0c0,%eax
 8048daa:	8b 00                	mov    (%eax),%eax
 8048dac:	89 45 e4             	mov    %eax,-0x1c(%ebp)
 8048daf:	83 45 cc 08          	addl   $0x8,-0x34(%ebp)
 8048db3:	eb 55                	jmp    8048e0a <fputc@plt+0x8da>
 8048db5:	8b 45 cc             	mov    -0x34(%ebp),%eax
 8048db8:	83 c0 03             	add    $0x3,%eax
 8048dbb:	05 c0 c0 04 08       	add    $0x804c0c0,%eax
 8048dc0:	8b 00                	mov    (%eax),%eax
 8048dc2:	89 45 e0             	mov    %eax,-0x20(%ebp)
 8048dc5:	8b 45 cc             	mov    -0x34(%ebp),%eax
 8048dc8:	83 c0 07             	add    $0x7,%eax
 8048dcb:	0f b6 80 c0 c0 04 08 	movzbl 0x804c0c0(%eax),%eax
 8048dd2:	0f be c0             	movsbl %al,%eax
 8048dd5:	8b 84 85 4c ff ff ff 	mov    -0xb4(%ebp,%eax,4),%eax
 8048ddc:	89 45 e4             	mov    %eax,-0x1c(%ebp)
 8048ddf:	83 45 cc 08          	addl   $0x8,-0x34(%ebp)
 8048de3:	eb 25                	jmp    8048e0a <fputc@plt+0x8da>
 8048de5:	8b 45 cc             	mov    -0x34(%ebp),%eax
 8048de8:	83 c0 03             	add    $0x3,%eax
 8048deb:	05 c0 c0 04 08       	add    $0x804c0c0,%eax
 8048df0:	8b 00                	mov    (%eax),%eax
 8048df2:	89 45 e0             	mov    %eax,-0x20(%ebp)
 8048df5:	8b 45 cc             	mov    -0x34(%ebp),%eax
 8048df8:	83 c0 07             	add    $0x7,%eax
 8048dfb:	05 c0 c0 04 08       	add    $0x804c0c0,%eax
 8048e00:	8b 00                	mov    (%eax),%eax
 8048e02:	89 45 e4             	mov    %eax,-0x1c(%ebp)
 8048e05:	83 45 cc 0b          	addl   $0xb,-0x34(%ebp)
 8048e09:	90                   	nop
 8048e0a:	8b 45 e0             	mov    -0x20(%ebp),%eax
 8048e0d:	89 c2                	mov    %eax,%edx
 8048e0f:	0f af 55 e4          	imul   -0x1c(%ebp),%edx
 8048e13:	8b 45 dc             	mov    -0x24(%ebp),%eax
 8048e16:	89 94 85 4c ff ff ff 	mov    %edx,-0xb4(%ebp,%eax,4)
 8048e1d:	8b 45 dc             	mov    -0x24(%ebp),%eax
 8048e20:	8b 84 85 4c ff ff ff 	mov    -0xb4(%ebp,%eax,4),%eax
 8048e27:	89 45 d8             	mov    %eax,-0x28(%ebp)
 8048e2a:	e9 38 0e 00 00       	jmp    8049c67 <fputc@plt+0x1737>
 8048e2f:	8b 45 cc             	mov    -0x34(%ebp),%eax
 8048e32:	83 c0 01             	add    $0x1,%eax
 8048e35:	0f b6 80 c0 c0 04 08 	movzbl 0x804c0c0(%eax),%eax
 8048e3c:	0f be c0             	movsbl %al,%eax
 8048e3f:	89 45 f4             	mov    %eax,-0xc(%ebp)
 8048e42:	8b 45 cc             	mov    -0x34(%ebp),%eax
 8048e45:	83 c0 02             	add    $0x2,%eax
 8048e48:	0f b6 80 c0 c0 04 08 	movzbl 0x804c0c0(%eax),%eax
 8048e4f:	0f be c0             	movsbl %al,%eax
 8048e52:	89 45 dc             	mov    %eax,-0x24(%ebp)
 8048e55:	8b 45 cc             	mov    -0x34(%ebp),%eax
 8048e58:	83 c0 03             	add    $0x3,%eax
 8048e5b:	0f b6 80 c0 c0 04 08 	movzbl 0x804c0c0(%eax),%eax
 8048e62:	0f be c0             	movsbl %al,%eax
 8048e65:	89 45 e0             	mov    %eax,-0x20(%ebp)
 8048e68:	8b 45 f4             	mov    -0xc(%ebp),%eax
 8048e6b:	83 f8 01             	cmp    $0x1,%eax
 8048e6e:	74 5e                	je     8048ece <fputc@plt+0x99e>
 8048e70:	83 f8 01             	cmp    $0x1,%eax
 8048e73:	7f 09                	jg     8048e7e <fputc@plt+0x94e>
 8048e75:	85 c0                	test   %eax,%eax
 8048e77:	74 18                	je     8048e91 <fputc@plt+0x961>
 8048e79:	e9 d5 00 00 00       	jmp    8048f53 <fputc@plt+0xa23>
 8048e7e:	83 f8 02             	cmp    $0x2,%eax
 8048e81:	74 7b                	je     8048efe <fputc@plt+0x9ce>
 8048e83:	83 f8 04             	cmp    $0x4,%eax
 8048e86:	0f 84 a2 00 00 00    	je     8048f2e <fputc@plt+0x9fe>
 8048e8c:	e9 c2 00 00 00       	jmp    8048f53 <fputc@plt+0xa23>
 8048e91:	8b 45 cc             	mov    -0x34(%ebp),%eax
 8048e94:	83 c0 04             	add    $0x4,%eax
 8048e97:	0f b6 80 c0 c0 04 08 	movzbl 0x804c0c0(%eax),%eax
 8048e9e:	0f be c0             	movsbl %al,%eax
 8048ea1:	8b 84 85 4c ff ff ff 	mov    -0xb4(%ebp,%eax,4),%eax
 8048ea8:	89 45 e4             	mov    %eax,-0x1c(%ebp)
 8048eab:	8b 45 cc             	mov    -0x34(%ebp),%eax
 8048eae:	83 c0 05             	add    $0x5,%eax
 8048eb1:	0f b6 80 c0 c0 04 08 	movzbl 0x804c0c0(%eax),%eax
 8048eb8:	0f be c0             	movsbl %al,%eax
 8048ebb:	8b 84 85 4c ff ff ff 	mov    -0xb4(%ebp,%eax,4),%eax
 8048ec2:	89 45 e8             	mov    %eax,-0x18(%ebp)
 8048ec5:	83 45 cc 05          	addl   $0x5,-0x34(%ebp)
 8048ec9:	e9 85 00 00 00       	jmp    8048f53 <fputc@plt+0xa23>
 8048ece:	8b 45 cc             	mov    -0x34(%ebp),%eax
 8048ed1:	83 c0 04             	add    $0x4,%eax
 8048ed4:	0f b6 80 c0 c0 04 08 	movzbl 0x804c0c0(%eax),%eax
 8048edb:	0f be c0             	movsbl %al,%eax
 8048ede:	8b 84 85 4c ff ff ff 	mov    -0xb4(%ebp,%eax,4),%eax
 8048ee5:	89 45 e4             	mov    %eax,-0x1c(%ebp)
 8048ee8:	8b 45 cc             	mov    -0x34(%ebp),%eax
 8048eeb:	83 c0 05             	add    $0x5,%eax
 8048eee:	05 c0 c0 04 08       	add    $0x804c0c0,%eax
 8048ef3:	8b 00                	mov    (%eax),%eax
 8048ef5:	89 45 e8             	mov    %eax,-0x18(%ebp)
 8048ef8:	83 45 cc 08          	addl   $0x8,-0x34(%ebp)
 8048efc:	eb 55                	jmp    8048f53 <fputc@plt+0xa23>
 8048efe:	8b 45 cc             	mov    -0x34(%ebp),%eax
 8048f01:	83 c0 04             	add    $0x4,%eax
 8048f04:	05 c0 c0 04 08       	add    $0x804c0c0,%eax
 8048f09:	8b 00                	mov    (%eax),%eax
 8048f0b:	89 45 e4             	mov    %eax,-0x1c(%ebp)
 8048f0e:	8b 45 cc             	mov    -0x34(%ebp),%eax
 8048f11:	83 c0 08             	add    $0x8,%eax
 8048f14:	0f b6 80 c0 c0 04 08 	movzbl 0x804c0c0(%eax),%eax
 8048f1b:	0f be c0             	movsbl %al,%eax
 8048f1e:	8b 84 85 4c ff ff ff 	mov    -0xb4(%ebp,%eax,4),%eax
 8048f25:	89 45 e8             	mov    %eax,-0x18(%ebp)
 8048f28:	83 45 cc 08          	addl   $0x8,-0x34(%ebp)
 8048f2c:	eb 25                	jmp    8048f53 <fputc@plt+0xa23>
 8048f2e:	8b 45 cc             	mov    -0x34(%ebp),%eax
 8048f31:	83 c0 04             	add    $0x4,%eax
 8048f34:	05 c0 c0 04 08       	add    $0x804c0c0,%eax
 8048f39:	8b 00                	mov    (%eax),%eax
 8048f3b:	89 45 e4             	mov    %eax,-0x1c(%ebp)
 8048f3e:	8b 45 cc             	mov    -0x34(%ebp),%eax
 8048f41:	83 c0 08             	add    $0x8,%eax
 8048f44:	05 c0 c0 04 08       	add    $0x804c0c0,%eax
 8048f49:	8b 00                	mov    (%eax),%eax
 8048f4b:	89 45 e8             	mov    %eax,-0x18(%ebp)
 8048f4e:	83 45 cc 0b          	addl   $0xb,-0x34(%ebp)
 8048f52:	90                   	nop
 8048f53:	8b 45 e4             	mov    -0x1c(%ebp),%eax
 8048f56:	89 c2                	mov    %eax,%edx
 8048f58:	c1 fa 1f             	sar    $0x1f,%edx
 8048f5b:	f7 7d e8             	idivl  -0x18(%ebp)
 8048f5e:	89 c2                	mov    %eax,%edx
 8048f60:	8b 45 dc             	mov    -0x24(%ebp),%eax
 8048f63:	89 94 85 4c ff ff ff 	mov    %edx,-0xb4(%ebp,%eax,4)
 8048f6a:	8b 45 dc             	mov    -0x24(%ebp),%eax
 8048f6d:	8b 84 85 4c ff ff ff 	mov    -0xb4(%ebp,%eax,4),%eax
 8048f74:	89 45 d8             	mov    %eax,-0x28(%ebp)
 8048f77:	8b 45 e4             	mov    -0x1c(%ebp),%eax
 8048f7a:	89 c2                	mov    %eax,%edx
 8048f7c:	c1 fa 1f             	sar    $0x1f,%edx
 8048f7f:	f7 7d e8             	idivl  -0x18(%ebp)
 8048f82:	8b 45 e0             	mov    -0x20(%ebp),%eax
 8048f85:	89 94 85 4c ff ff ff 	mov    %edx,-0xb4(%ebp,%eax,4)
 8048f8c:	e9 d6 0c 00 00       	jmp    8049c67 <fputc@plt+0x1737>
 8048f91:	8b 45 cc             	mov    -0x34(%ebp),%eax
 8048f94:	83 c0 01             	add    $0x1,%eax
 8048f97:	0f b6 80 c0 c0 04 08 	movzbl 0x804c0c0(%eax),%eax
 8048f9e:	0f be c0             	movsbl %al,%eax
 8048fa1:	89 45 f4             	mov    %eax,-0xc(%ebp)
 8048fa4:	8b 45 cc             	mov    -0x34(%ebp),%eax
 8048fa7:	83 c0 02             	add    $0x2,%eax
 8048faa:	0f b6 80 c0 c0 04 08 	movzbl 0x804c0c0(%eax),%eax
 8048fb1:	0f be c0             	movsbl %al,%eax
 8048fb4:	89 45 dc             	mov    %eax,-0x24(%ebp)
 8048fb7:	8b 45 f4             	mov    -0xc(%ebp),%eax
 8048fba:	83 f8 01             	cmp    $0x1,%eax
 8048fbd:	74 5e                	je     804901d <fputc@plt+0xaed>
 8048fbf:	83 f8 01             	cmp    $0x1,%eax
 8048fc2:	7f 09                	jg     8048fcd <fputc@plt+0xa9d>
 8048fc4:	85 c0                	test   %eax,%eax
 8048fc6:	74 18                	je     8048fe0 <fputc@plt+0xab0>
 8048fc8:	e9 d5 00 00 00       	jmp    80490a2 <fputc@plt+0xb72>
 8048fcd:	83 f8 02             	cmp    $0x2,%eax
 8048fd0:	74 7b                	je     804904d <fputc@plt+0xb1d>
 8048fd2:	83 f8 04             	cmp    $0x4,%eax
 8048fd5:	0f 84 a2 00 00 00    	je     804907d <fputc@plt+0xb4d>
 8048fdb:	e9 c2 00 00 00       	jmp    80490a2 <fputc@plt+0xb72>
 8048fe0:	8b 45 cc             	mov    -0x34(%ebp),%eax
 8048fe3:	83 c0 03             	add    $0x3,%eax
 8048fe6:	0f b6 80 c0 c0 04 08 	movzbl 0x804c0c0(%eax),%eax
 8048fed:	0f be c0             	movsbl %al,%eax
 8048ff0:	8b 84 85 4c ff ff ff 	mov    -0xb4(%ebp,%eax,4),%eax
 8048ff7:	89 45 e0             	mov    %eax,-0x20(%ebp)
 8048ffa:	8b 45 cc             	mov    -0x34(%ebp),%eax
 8048ffd:	83 c0 04             	add    $0x4,%eax
 8049000:	0f b6 80 c0 c0 04 08 	movzbl 0x804c0c0(%eax),%eax
 8049007:	0f be c0             	movsbl %al,%eax
 804900a:	8b 84 85 4c ff ff ff 	mov    -0xb4(%ebp,%eax,4),%eax
 8049011:	89 45 e4             	mov    %eax,-0x1c(%ebp)
 8049014:	83 45 cc 05          	addl   $0x5,-0x34(%ebp)
 8049018:	e9 85 00 00 00       	jmp    80490a2 <fputc@plt+0xb72>
 804901d:	8b 45 cc             	mov    -0x34(%ebp),%eax
 8049020:	83 c0 03             	add    $0x3,%eax
 8049023:	0f b6 80 c0 c0 04 08 	movzbl 0x804c0c0(%eax),%eax
 804902a:	0f be c0             	movsbl %al,%eax
 804902d:	8b 84 85 4c ff ff ff 	mov    -0xb4(%ebp,%eax,4),%eax
 8049034:	89 45 e0             	mov    %eax,-0x20(%ebp)
 8049037:	8b 45 cc             	mov    -0x34(%ebp),%eax
 804903a:	83 c0 04             	add    $0x4,%eax
 804903d:	05 c0 c0 04 08       	add    $0x804c0c0,%eax
 8049042:	8b 00                	mov    (%eax),%eax
 8049044:	89 45 e4             	mov    %eax,-0x1c(%ebp)
 8049047:	83 45 cc 08          	addl   $0x8,-0x34(%ebp)
 804904b:	eb 55                	jmp    80490a2 <fputc@plt+0xb72>
 804904d:	8b 45 cc             	mov    -0x34(%ebp),%eax
 8049050:	83 c0 03             	add    $0x3,%eax
 8049053:	05 c0 c0 04 08       	add    $0x804c0c0,%eax
 8049058:	8b 00                	mov    (%eax),%eax
 804905a:	89 45 e0             	mov    %eax,-0x20(%ebp)
 804905d:	8b 45 cc             	mov    -0x34(%ebp),%eax
 8049060:	83 c0 07             	add    $0x7,%eax
 8049063:	0f b6 80 c0 c0 04 08 	movzbl 0x804c0c0(%eax),%eax
 804906a:	0f be c0             	movsbl %al,%eax
 804906d:	8b 84 85 4c ff ff ff 	mov    -0xb4(%ebp,%eax,4),%eax
 8049074:	89 45 e4             	mov    %eax,-0x1c(%ebp)
 8049077:	83 45 cc 08          	addl   $0x8,-0x34(%ebp)
 804907b:	eb 25                	jmp    80490a2 <fputc@plt+0xb72>
 804907d:	8b 45 cc             	mov    -0x34(%ebp),%eax
 8049080:	83 c0 03             	add    $0x3,%eax
 8049083:	05 c0 c0 04 08       	add    $0x804c0c0,%eax
 8049088:	8b 00                	mov    (%eax),%eax
 804908a:	89 45 e0             	mov    %eax,-0x20(%ebp)
 804908d:	8b 45 cc             	mov    -0x34(%ebp),%eax
 8049090:	83 c0 07             	add    $0x7,%eax
 8049093:	05 c0 c0 04 08       	add    $0x804c0c0,%eax
 8049098:	8b 00                	mov    (%eax),%eax
 804909a:	89 45 e4             	mov    %eax,-0x1c(%ebp)
 804909d:	83 45 cc 0b          	addl   $0xb,-0x34(%ebp)
 80490a1:	90                   	nop
 80490a2:	8b 45 e4             	mov    -0x1c(%ebp),%eax
 80490a5:	8b 55 e0             	mov    -0x20(%ebp),%edx
 80490a8:	31 c2                	xor    %eax,%edx
 80490aa:	8b 45 dc             	mov    -0x24(%ebp),%eax
 80490ad:	89 94 85 4c ff ff ff 	mov    %edx,-0xb4(%ebp,%eax,4)
 80490b4:	8b 45 dc             	mov    -0x24(%ebp),%eax
 80490b7:	8b 84 85 4c ff ff ff 	mov    -0xb4(%ebp,%eax,4),%eax
 80490be:	89 45 d8             	mov    %eax,-0x28(%ebp)
 80490c1:	e9 a1 0b 00 00       	jmp    8049c67 <fputc@plt+0x1737>
 80490c6:	8b 45 cc             	mov    -0x34(%ebp),%eax
 80490c9:	83 c0 01             	add    $0x1,%eax
 80490cc:	0f b6 80 c0 c0 04 08 	movzbl 0x804c0c0(%eax),%eax
 80490d3:	0f be c0             	movsbl %al,%eax
 80490d6:	89 45 f4             	mov    %eax,-0xc(%ebp)
 80490d9:	8b 45 cc             	mov    -0x34(%ebp),%eax
 80490dc:	83 c0 02             	add    $0x2,%eax
 80490df:	0f b6 80 c0 c0 04 08 	movzbl 0x804c0c0(%eax),%eax
 80490e6:	0f be c0             	movsbl %al,%eax
 80490e9:	89 45 dc             	mov    %eax,-0x24(%ebp)
 80490ec:	8b 45 f4             	mov    -0xc(%ebp),%eax
 80490ef:	83 f8 01             	cmp    $0x1,%eax
 80490f2:	74 5e                	je     8049152 <fputc@plt+0xc22>
 80490f4:	83 f8 01             	cmp    $0x1,%eax
 80490f7:	7f 09                	jg     8049102 <fputc@plt+0xbd2>
 80490f9:	85 c0                	test   %eax,%eax
 80490fb:	74 18                	je     8049115 <fputc@plt+0xbe5>
 80490fd:	e9 d5 00 00 00       	jmp    80491d7 <fputc@plt+0xca7>
 8049102:	83 f8 02             	cmp    $0x2,%eax
 8049105:	74 7b                	je     8049182 <fputc@plt+0xc52>
 8049107:	83 f8 04             	cmp    $0x4,%eax
 804910a:	0f 84 a2 00 00 00    	je     80491b2 <fputc@plt+0xc82>
 8049110:	e9 c2 00 00 00       	jmp    80491d7 <fputc@plt+0xca7>
 8049115:	8b 45 cc             	mov    -0x34(%ebp),%eax
 8049118:	83 c0 03             	add    $0x3,%eax
 804911b:	0f b6 80 c0 c0 04 08 	movzbl 0x804c0c0(%eax),%eax
 8049122:	0f be c0             	movsbl %al,%eax
 8049125:	8b 84 85 4c ff ff ff 	mov    -0xb4(%ebp,%eax,4),%eax
 804912c:	89 45 e0             	mov    %eax,-0x20(%ebp)
 804912f:	8b 45 cc             	mov    -0x34(%ebp),%eax
 8049132:	83 c0 04             	add    $0x4,%eax
 8049135:	0f b6 80 c0 c0 04 08 	movzbl 0x804c0c0(%eax),%eax
 804913c:	0f be c0             	movsbl %al,%eax
 804913f:	8b 84 85 4c ff ff ff 	mov    -0xb4(%ebp,%eax,4),%eax
 8049146:	89 45 e4             	mov    %eax,-0x1c(%ebp)
 8049149:	83 45 cc 05          	addl   $0x5,-0x34(%ebp)
 804914d:	e9 85 00 00 00       	jmp    80491d7 <fputc@plt+0xca7>
 8049152:	8b 45 cc             	mov    -0x34(%ebp),%eax
 8049155:	83 c0 03             	add    $0x3,%eax
 8049158:	0f b6 80 c0 c0 04 08 	movzbl 0x804c0c0(%eax),%eax
 804915f:	0f be c0             	movsbl %al,%eax
 8049162:	8b 84 85 4c ff ff ff 	mov    -0xb4(%ebp,%eax,4),%eax
 8049169:	89 45 e0             	mov    %eax,-0x20(%ebp)
 804916c:	8b 45 cc             	mov    -0x34(%ebp),%eax
 804916f:	83 c0 04             	add    $0x4,%eax
 8049172:	05 c0 c0 04 08       	add    $0x804c0c0,%eax
 8049177:	8b 00                	mov    (%eax),%eax
 8049179:	89 45 e4             	mov    %eax,-0x1c(%ebp)
 804917c:	83 45 cc 08          	addl   $0x8,-0x34(%ebp)
 8049180:	eb 55                	jmp    80491d7 <fputc@plt+0xca7>
 8049182:	8b 45 cc             	mov    -0x34(%ebp),%eax
 8049185:	83 c0 03             	add    $0x3,%eax
 8049188:	05 c0 c0 04 08       	add    $0x804c0c0,%eax
 804918d:	8b 00                	mov    (%eax),%eax
 804918f:	89 45 e0             	mov    %eax,-0x20(%ebp)
 8049192:	8b 45 cc             	mov    -0x34(%ebp),%eax
 8049195:	83 c0 07             	add    $0x7,%eax
 8049198:	0f b6 80 c0 c0 04 08 	movzbl 0x804c0c0(%eax),%eax
 804919f:	0f be c0             	movsbl %al,%eax
 80491a2:	8b 84 85 4c ff ff ff 	mov    -0xb4(%ebp,%eax,4),%eax
 80491a9:	89 45 e4             	mov    %eax,-0x1c(%ebp)
 80491ac:	83 45 cc 08          	addl   $0x8,-0x34(%ebp)
 80491b0:	eb 25                	jmp    80491d7 <fputc@plt+0xca7>
 80491b2:	8b 45 cc             	mov    -0x34(%ebp),%eax
 80491b5:	83 c0 03             	add    $0x3,%eax
 80491b8:	05 c0 c0 04 08       	add    $0x804c0c0,%eax
 80491bd:	8b 00                	mov    (%eax),%eax
 80491bf:	89 45 e0             	mov    %eax,-0x20(%ebp)
 80491c2:	8b 45 cc             	mov    -0x34(%ebp),%eax
 80491c5:	83 c0 07             	add    $0x7,%eax
 80491c8:	05 c0 c0 04 08       	add    $0x804c0c0,%eax
 80491cd:	8b 00                	mov    (%eax),%eax
 80491cf:	89 45 e4             	mov    %eax,-0x1c(%ebp)
 80491d2:	83 45 cc 0b          	addl   $0xb,-0x34(%ebp)
 80491d6:	90                   	nop
 80491d7:	8b 45 e4             	mov    -0x1c(%ebp),%eax
 80491da:	8b 55 e0             	mov    -0x20(%ebp),%edx
 80491dd:	21 c2                	and    %eax,%edx
 80491df:	8b 45 dc             	mov    -0x24(%ebp),%eax
 80491e2:	89 94 85 4c ff ff ff 	mov    %edx,-0xb4(%ebp,%eax,4)
 80491e9:	8b 45 dc             	mov    -0x24(%ebp),%eax
 80491ec:	8b 84 85 4c ff ff ff 	mov    -0xb4(%ebp,%eax,4),%eax
 80491f3:	89 45 d8             	mov    %eax,-0x28(%ebp)
 80491f6:	e9 6c 0a 00 00       	jmp    8049c67 <fputc@plt+0x1737>
 80491fb:	8b 45 cc             	mov    -0x34(%ebp),%eax
 80491fe:	83 c0 01             	add    $0x1,%eax
 8049201:	0f b6 80 c0 c0 04 08 	movzbl 0x804c0c0(%eax),%eax
 8049208:	0f be c0             	movsbl %al,%eax
 804920b:	89 45 f4             	mov    %eax,-0xc(%ebp)
 804920e:	8b 45 cc             	mov    -0x34(%ebp),%eax
 8049211:	83 c0 02             	add    $0x2,%eax
 8049214:	0f b6 80 c0 c0 04 08 	movzbl 0x804c0c0(%eax),%eax
 804921b:	0f be c0             	movsbl %al,%eax
 804921e:	89 45 dc             	mov    %eax,-0x24(%ebp)
 8049221:	8b 45 f4             	mov    -0xc(%ebp),%eax
 8049224:	83 f8 01             	cmp    $0x1,%eax
 8049227:	74 5e                	je     8049287 <fputc@plt+0xd57>
 8049229:	83 f8 01             	cmp    $0x1,%eax
 804922c:	7f 09                	jg     8049237 <fputc@plt+0xd07>
 804922e:	85 c0                	test   %eax,%eax
 8049230:	74 18                	je     804924a <fputc@plt+0xd1a>
 8049232:	e9 d5 00 00 00       	jmp    804930c <fputc@plt+0xddc>
 8049237:	83 f8 02             	cmp    $0x2,%eax
 804923a:	74 7b                	je     80492b7 <fputc@plt+0xd87>
 804923c:	83 f8 04             	cmp    $0x4,%eax
 804923f:	0f 84 a2 00 00 00    	je     80492e7 <fputc@plt+0xdb7>
 8049245:	e9 c2 00 00 00       	jmp    804930c <fputc@plt+0xddc>
 804924a:	8b 45 cc             	mov    -0x34(%ebp),%eax
 804924d:	83 c0 03             	add    $0x3,%eax
 8049250:	0f b6 80 c0 c0 04 08 	movzbl 0x804c0c0(%eax),%eax
 8049257:	0f be c0             	movsbl %al,%eax
 804925a:	8b 84 85 4c ff ff ff 	mov    -0xb4(%ebp,%eax,4),%eax
 8049261:	89 45 e0             	mov    %eax,-0x20(%ebp)
 8049264:	8b 45 cc             	mov    -0x34(%ebp),%eax
 8049267:	83 c0 04             	add    $0x4,%eax
 804926a:	0f b6 80 c0 c0 04 08 	movzbl 0x804c0c0(%eax),%eax
 8049271:	0f be c0             	movsbl %al,%eax
 8049274:	8b 84 85 4c ff ff ff 	mov    -0xb4(%ebp,%eax,4),%eax
 804927b:	89 45 e4             	mov    %eax,-0x1c(%ebp)
 804927e:	83 45 cc 05          	addl   $0x5,-0x34(%ebp)
 8049282:	e9 85 00 00 00       	jmp    804930c <fputc@plt+0xddc>
 8049287:	8b 45 cc             	mov    -0x34(%ebp),%eax
 804928a:	83 c0 03             	add    $0x3,%eax
 804928d:	0f b6 80 c0 c0 04 08 	movzbl 0x804c0c0(%eax),%eax
 8049294:	0f be c0             	movsbl %al,%eax
 8049297:	8b 84 85 4c ff ff ff 	mov    -0xb4(%ebp,%eax,4),%eax
 804929e:	89 45 e0             	mov    %eax,-0x20(%ebp)
 80492a1:	8b 45 cc             	mov    -0x34(%ebp),%eax
 80492a4:	83 c0 04             	add    $0x4,%eax
 80492a7:	05 c0 c0 04 08       	add    $0x804c0c0,%eax
 80492ac:	8b 00                	mov    (%eax),%eax
 80492ae:	89 45 e4             	mov    %eax,-0x1c(%ebp)
 80492b1:	83 45 cc 08          	addl   $0x8,-0x34(%ebp)
 80492b5:	eb 55                	jmp    804930c <fputc@plt+0xddc>
 80492b7:	8b 45 cc             	mov    -0x34(%ebp),%eax
 80492ba:	83 c0 03             	add    $0x3,%eax
 80492bd:	05 c0 c0 04 08       	add    $0x804c0c0,%eax
 80492c2:	8b 00                	mov    (%eax),%eax
 80492c4:	89 45 e0             	mov    %eax,-0x20(%ebp)
 80492c7:	8b 45 cc             	mov    -0x34(%ebp),%eax
 80492ca:	83 c0 07             	add    $0x7,%eax
 80492cd:	0f b6 80 c0 c0 04 08 	movzbl 0x804c0c0(%eax),%eax
 80492d4:	0f be c0             	movsbl %al,%eax
 80492d7:	8b 84 85 4c ff ff ff 	mov    -0xb4(%ebp,%eax,4),%eax
 80492de:	89 45 e4             	mov    %eax,-0x1c(%ebp)
 80492e1:	83 45 cc 08          	addl   $0x8,-0x34(%ebp)
 80492e5:	eb 25                	jmp    804930c <fputc@plt+0xddc>
 80492e7:	8b 45 cc             	mov    -0x34(%ebp),%eax
 80492ea:	83 c0 03             	add    $0x3,%eax
 80492ed:	05 c0 c0 04 08       	add    $0x804c0c0,%eax
 80492f2:	8b 00                	mov    (%eax),%eax
 80492f4:	89 45 e0             	mov    %eax,-0x20(%ebp)
 80492f7:	8b 45 cc             	mov    -0x34(%ebp),%eax
 80492fa:	83 c0 07             	add    $0x7,%eax
 80492fd:	05 c0 c0 04 08       	add    $0x804c0c0,%eax
 8049302:	8b 00                	mov    (%eax),%eax
 8049304:	89 45 e4             	mov    %eax,-0x1c(%ebp)
 8049307:	83 45 cc 0b          	addl   $0xb,-0x34(%ebp)
 804930b:	90                   	nop
 804930c:	8b 45 e4             	mov    -0x1c(%ebp),%eax
 804930f:	8b 55 e0             	mov    -0x20(%ebp),%edx
 8049312:	09 c2                	or     %eax,%edx
 8049314:	8b 45 dc             	mov    -0x24(%ebp),%eax
 8049317:	89 94 85 4c ff ff ff 	mov    %edx,-0xb4(%ebp,%eax,4)
 804931e:	8b 45 dc             	mov    -0x24(%ebp),%eax
 8049321:	8b 84 85 4c ff ff ff 	mov    -0xb4(%ebp,%eax,4),%eax
 8049328:	89 45 d8             	mov    %eax,-0x28(%ebp)
 804932b:	e9 37 09 00 00       	jmp    8049c67 <fputc@plt+0x1737>
 8049330:	8b 45 cc             	mov    -0x34(%ebp),%eax
 8049333:	83 c0 01             	add    $0x1,%eax
 8049336:	0f b6 80 c0 c0 04 08 	movzbl 0x804c0c0(%eax),%eax
 804933d:	0f be c0             	movsbl %al,%eax
 8049340:	89 45 f4             	mov    %eax,-0xc(%ebp)
 8049343:	8b 45 cc             	mov    -0x34(%ebp),%eax
 8049346:	83 c0 02             	add    $0x2,%eax
 8049349:	0f b6 80 c0 c0 04 08 	movzbl 0x804c0c0(%eax),%eax
 8049350:	0f be c0             	movsbl %al,%eax
 8049353:	89 45 dc             	mov    %eax,-0x24(%ebp)
 8049356:	8b 45 f4             	mov    -0xc(%ebp),%eax
 8049359:	83 f8 01             	cmp    $0x1,%eax
 804935c:	74 5e                	je     80493bc <fputc@plt+0xe8c>
 804935e:	83 f8 01             	cmp    $0x1,%eax
 8049361:	7f 09                	jg     804936c <fputc@plt+0xe3c>
 8049363:	85 c0                	test   %eax,%eax
 8049365:	74 18                	je     804937f <fputc@plt+0xe4f>
 8049367:	e9 d5 00 00 00       	jmp    8049441 <fputc@plt+0xf11>
 804936c:	83 f8 02             	cmp    $0x2,%eax
 804936f:	74 7b                	je     80493ec <fputc@plt+0xebc>
 8049371:	83 f8 04             	cmp    $0x4,%eax
 8049374:	0f 84 a2 00 00 00    	je     804941c <fputc@plt+0xeec>
 804937a:	e9 c2 00 00 00       	jmp    8049441 <fputc@plt+0xf11>
 804937f:	8b 45 cc             	mov    -0x34(%ebp),%eax
 8049382:	83 c0 03             	add    $0x3,%eax
 8049385:	0f b6 80 c0 c0 04 08 	movzbl 0x804c0c0(%eax),%eax
 804938c:	0f be c0             	movsbl %al,%eax
 804938f:	8b 84 85 4c ff ff ff 	mov    -0xb4(%ebp,%eax,4),%eax
 8049396:	89 45 e0             	mov    %eax,-0x20(%ebp)
 8049399:	8b 45 cc             	mov    -0x34(%ebp),%eax
 804939c:	83 c0 04             	add    $0x4,%eax
 804939f:	0f b6 80 c0 c0 04 08 	movzbl 0x804c0c0(%eax),%eax
 80493a6:	0f be c0             	movsbl %al,%eax
 80493a9:	8b 84 85 4c ff ff ff 	mov    -0xb4(%ebp,%eax,4),%eax
 80493b0:	89 45 e4             	mov    %eax,-0x1c(%ebp)
 80493b3:	83 45 cc 05          	addl   $0x5,-0x34(%ebp)
 80493b7:	e9 85 00 00 00       	jmp    8049441 <fputc@plt+0xf11>
 80493bc:	8b 45 cc             	mov    -0x34(%ebp),%eax
 80493bf:	83 c0 03             	add    $0x3,%eax
 80493c2:	0f b6 80 c0 c0 04 08 	movzbl 0x804c0c0(%eax),%eax
 80493c9:	0f be c0             	movsbl %al,%eax
 80493cc:	8b 84 85 4c ff ff ff 	mov    -0xb4(%ebp,%eax,4),%eax
 80493d3:	89 45 e0             	mov    %eax,-0x20(%ebp)
 80493d6:	8b 45 cc             	mov    -0x34(%ebp),%eax
 80493d9:	83 c0 04             	add    $0x4,%eax
 80493dc:	05 c0 c0 04 08       	add    $0x804c0c0,%eax
 80493e1:	8b 00                	mov    (%eax),%eax
 80493e3:	89 45 e4             	mov    %eax,-0x1c(%ebp)
 80493e6:	83 45 cc 08          	addl   $0x8,-0x34(%ebp)
 80493ea:	eb 55                	jmp    8049441 <fputc@plt+0xf11>
 80493ec:	8b 45 cc             	mov    -0x34(%ebp),%eax
 80493ef:	83 c0 03             	add    $0x3,%eax
 80493f2:	05 c0 c0 04 08       	add    $0x804c0c0,%eax
 80493f7:	8b 00                	mov    (%eax),%eax
 80493f9:	89 45 e0             	mov    %eax,-0x20(%ebp)
 80493fc:	8b 45 cc             	mov    -0x34(%ebp),%eax
 80493ff:	83 c0 07             	add    $0x7,%eax
 8049402:	0f b6 80 c0 c0 04 08 	movzbl 0x804c0c0(%eax),%eax
 8049409:	0f be c0             	movsbl %al,%eax
 804940c:	8b 84 85 4c ff ff ff 	mov    -0xb4(%ebp,%eax,4),%eax
 8049413:	89 45 e4             	mov    %eax,-0x1c(%ebp)
 8049416:	83 45 cc 08          	addl   $0x8,-0x34(%ebp)
 804941a:	eb 25                	jmp    8049441 <fputc@plt+0xf11>
 804941c:	8b 45 cc             	mov    -0x34(%ebp),%eax
 804941f:	83 c0 03             	add    $0x3,%eax
 8049422:	05 c0 c0 04 08       	add    $0x804c0c0,%eax
 8049427:	8b 00                	mov    (%eax),%eax
 8049429:	89 45 e0             	mov    %eax,-0x20(%ebp)
 804942c:	8b 45 cc             	mov    -0x34(%ebp),%eax
 804942f:	83 c0 07             	add    $0x7,%eax
 8049432:	05 c0 c0 04 08       	add    $0x804c0c0,%eax
 8049437:	8b 00                	mov    (%eax),%eax
 8049439:	89 45 e4             	mov    %eax,-0x1c(%ebp)
 804943c:	83 45 cc 0b          	addl   $0xb,-0x34(%ebp)
 8049440:	90                   	nop
 8049441:	8b 45 e4             	mov    -0x1c(%ebp),%eax
 8049444:	8b 55 e0             	mov    -0x20(%ebp),%edx
 8049447:	89 c1                	mov    %eax,%ecx
 8049449:	d3 e2                	shl    %cl,%edx
 804944b:	8b 45 dc             	mov    -0x24(%ebp),%eax
 804944e:	89 94 85 4c ff ff ff 	mov    %edx,-0xb4(%ebp,%eax,4)
 8049455:	8b 45 dc             	mov    -0x24(%ebp),%eax
 8049458:	8b 84 85 4c ff ff ff 	mov    -0xb4(%ebp,%eax,4),%eax
 804945f:	89 45 d8             	mov    %eax,-0x28(%ebp)
 8049462:	e9 00 08 00 00       	jmp    8049c67 <fputc@plt+0x1737>
 8049467:	8b 45 cc             	mov    -0x34(%ebp),%eax
 804946a:	83 c0 01             	add    $0x1,%eax
 804946d:	0f b6 80 c0 c0 04 08 	movzbl 0x804c0c0(%eax),%eax
 8049474:	0f be c0             	movsbl %al,%eax
 8049477:	89 45 f4             	mov    %eax,-0xc(%ebp)
 804947a:	8b 45 cc             	mov    -0x34(%ebp),%eax
 804947d:	83 c0 02             	add    $0x2,%eax
 8049480:	0f b6 80 c0 c0 04 08 	movzbl 0x804c0c0(%eax),%eax
 8049487:	0f be c0             	movsbl %al,%eax
 804948a:	89 45 dc             	mov    %eax,-0x24(%ebp)
 804948d:	8b 45 f4             	mov    -0xc(%ebp),%eax
 8049490:	83 f8 01             	cmp    $0x1,%eax
 8049493:	74 5e                	je     80494f3 <fputc@plt+0xfc3>
 8049495:	83 f8 01             	cmp    $0x1,%eax
 8049498:	7f 09                	jg     80494a3 <fputc@plt+0xf73>
 804949a:	85 c0                	test   %eax,%eax
 804949c:	74 18                	je     80494b6 <fputc@plt+0xf86>
 804949e:	e9 d5 00 00 00       	jmp    8049578 <fputc@plt+0x1048>
 80494a3:	83 f8 02             	cmp    $0x2,%eax
 80494a6:	74 7b                	je     8049523 <fputc@plt+0xff3>
 80494a8:	83 f8 04             	cmp    $0x4,%eax
 80494ab:	0f 84 a2 00 00 00    	je     8049553 <fputc@plt+0x1023>
 80494b1:	e9 c2 00 00 00       	jmp    8049578 <fputc@plt+0x1048>
 80494b6:	8b 45 cc             	mov    -0x34(%ebp),%eax
 80494b9:	83 c0 03             	add    $0x3,%eax
 80494bc:	0f b6 80 c0 c0 04 08 	movzbl 0x804c0c0(%eax),%eax
 80494c3:	0f be c0             	movsbl %al,%eax
 80494c6:	8b 84 85 4c ff ff ff 	mov    -0xb4(%ebp,%eax,4),%eax
 80494cd:	89 45 e0             	mov    %eax,-0x20(%ebp)
 80494d0:	8b 45 cc             	mov    -0x34(%ebp),%eax
 80494d3:	83 c0 04             	add    $0x4,%eax
 80494d6:	0f b6 80 c0 c0 04 08 	movzbl 0x804c0c0(%eax),%eax
 80494dd:	0f be c0             	movsbl %al,%eax
 80494e0:	8b 84 85 4c ff ff ff 	mov    -0xb4(%ebp,%eax,4),%eax
 80494e7:	89 45 e4             	mov    %eax,-0x1c(%ebp)
 80494ea:	83 45 cc 05          	addl   $0x5,-0x34(%ebp)
 80494ee:	e9 85 00 00 00       	jmp    8049578 <fputc@plt+0x1048>
 80494f3:	8b 45 cc             	mov    -0x34(%ebp),%eax
 80494f6:	83 c0 03             	add    $0x3,%eax
 80494f9:	0f b6 80 c0 c0 04 08 	movzbl 0x804c0c0(%eax),%eax
 8049500:	0f be c0             	movsbl %al,%eax
 8049503:	8b 84 85 4c ff ff ff 	mov    -0xb4(%ebp,%eax,4),%eax
 804950a:	89 45 e0             	mov    %eax,-0x20(%ebp)
 804950d:	8b 45 cc             	mov    -0x34(%ebp),%eax
 8049510:	83 c0 04             	add    $0x4,%eax
 8049513:	05 c0 c0 04 08       	add    $0x804c0c0,%eax
 8049518:	8b 00                	mov    (%eax),%eax
 804951a:	89 45 e4             	mov    %eax,-0x1c(%ebp)
 804951d:	83 45 cc 08          	addl   $0x8,-0x34(%ebp)
 8049521:	eb 55                	jmp    8049578 <fputc@plt+0x1048>
 8049523:	8b 45 cc             	mov    -0x34(%ebp),%eax
 8049526:	83 c0 03             	add    $0x3,%eax
 8049529:	05 c0 c0 04 08       	add    $0x804c0c0,%eax
 804952e:	8b 00                	mov    (%eax),%eax
 8049530:	89 45 e0             	mov    %eax,-0x20(%ebp)
 8049533:	8b 45 cc             	mov    -0x34(%ebp),%eax
 8049536:	83 c0 07             	add    $0x7,%eax
 8049539:	0f b6 80 c0 c0 04 08 	movzbl 0x804c0c0(%eax),%eax
 8049540:	0f be c0             	movsbl %al,%eax
 8049543:	8b 84 85 4c ff ff ff 	mov    -0xb4(%ebp,%eax,4),%eax
 804954a:	89 45 e4             	mov    %eax,-0x1c(%ebp)
 804954d:	83 45 cc 08          	addl   $0x8,-0x34(%ebp)
 8049551:	eb 25                	jmp    8049578 <fputc@plt+0x1048>
 8049553:	8b 45 cc             	mov    -0x34(%ebp),%eax
 8049556:	83 c0 03             	add    $0x3,%eax
 8049559:	05 c0 c0 04 08       	add    $0x804c0c0,%eax
 804955e:	8b 00                	mov    (%eax),%eax
 8049560:	89 45 e0             	mov    %eax,-0x20(%ebp)
 8049563:	8b 45 cc             	mov    -0x34(%ebp),%eax
 8049566:	83 c0 07             	add    $0x7,%eax
 8049569:	05 c0 c0 04 08       	add    $0x804c0c0,%eax
 804956e:	8b 00                	mov    (%eax),%eax
 8049570:	89 45 e4             	mov    %eax,-0x1c(%ebp)
 8049573:	83 45 cc 0b          	addl   $0xb,-0x34(%ebp)
 8049577:	90                   	nop
 8049578:	8b 45 e4             	mov    -0x1c(%ebp),%eax
 804957b:	8b 55 e0             	mov    -0x20(%ebp),%edx
 804957e:	89 c1                	mov    %eax,%ecx
 8049580:	d3 fa                	sar    %cl,%edx
 8049582:	8b 45 dc             	mov    -0x24(%ebp),%eax
 8049585:	89 94 85 4c ff ff ff 	mov    %edx,-0xb4(%ebp,%eax,4)
 804958c:	8b 45 dc             	mov    -0x24(%ebp),%eax
 804958f:	8b 84 85 4c ff ff ff 	mov    -0xb4(%ebp,%eax,4),%eax
 8049596:	89 45 d8             	mov    %eax,-0x28(%ebp)
 8049599:	e9 c9 06 00 00       	jmp    8049c67 <fputc@plt+0x1737>
 804959e:	8b 45 cc             	mov    -0x34(%ebp),%eax
 80495a1:	83 c0 01             	add    $0x1,%eax
 80495a4:	0f b6 80 c0 c0 04 08 	movzbl 0x804c0c0(%eax),%eax
 80495ab:	0f be c0             	movsbl %al,%eax
 80495ae:	89 45 dc             	mov    %eax,-0x24(%ebp)
 80495b1:	8b 45 cc             	mov    -0x34(%ebp),%eax
 80495b4:	83 c0 02             	add    $0x2,%eax
 80495b7:	0f b6 80 c0 c0 04 08 	movzbl 0x804c0c0(%eax),%eax
 80495be:	0f be c0             	movsbl %al,%eax
 80495c1:	8b 84 85 4c ff ff ff 	mov    -0xb4(%ebp,%eax,4),%eax
 80495c8:	89 45 e0             	mov    %eax,-0x20(%ebp)
 80495cb:	83 45 cc 03          	addl   $0x3,-0x34(%ebp)
 80495cf:	83 7d e0 00          	cmpl   $0x0,-0x20(%ebp)
 80495d3:	0f 94 c0             	sete   %al
 80495d6:	0f b6 d0             	movzbl %al,%edx
 80495d9:	8b 45 dc             	mov    -0x24(%ebp),%eax
 80495dc:	89 94 85 4c ff ff ff 	mov    %edx,-0xb4(%ebp,%eax,4)
 80495e3:	8b 45 dc             	mov    -0x24(%ebp),%eax
 80495e6:	8b 84 85 4c ff ff ff 	mov    -0xb4(%ebp,%eax,4),%eax
 80495ed:	89 45 d8             	mov    %eax,-0x28(%ebp)
 80495f0:	e9 72 06 00 00       	jmp    8049c67 <fputc@plt+0x1737>
 80495f5:	8b 45 cc             	mov    -0x34(%ebp),%eax
 80495f8:	83 c0 01             	add    $0x1,%eax
 80495fb:	0f b6 80 c0 c0 04 08 	movzbl 0x804c0c0(%eax),%eax
 8049602:	0f be c0             	movsbl %al,%eax
 8049605:	89 45 dc             	mov    %eax,-0x24(%ebp)
 8049608:	8b 45 cc             	mov    -0x34(%ebp),%eax
 804960b:	83 c0 02             	add    $0x2,%eax
 804960e:	0f b6 80 c0 c0 04 08 	movzbl 0x804c0c0(%eax),%eax
 8049615:	0f be c0             	movsbl %al,%eax
 8049618:	8b 84 85 4c ff ff ff 	mov    -0xb4(%ebp,%eax,4),%eax
 804961f:	89 45 e0             	mov    %eax,-0x20(%ebp)
 8049622:	83 45 cc 03          	addl   $0x3,-0x34(%ebp)
 8049626:	8b 45 e0             	mov    -0x20(%ebp),%eax
 8049629:	89 c2                	mov    %eax,%edx
 804962b:	f7 da                	neg    %edx
 804962d:	8b 45 dc             	mov    -0x24(%ebp),%eax
 8049630:	89 94 85 4c ff ff ff 	mov    %edx,-0xb4(%ebp,%eax,4)
 8049637:	8b 45 dc             	mov    -0x24(%ebp),%eax
 804963a:	8b 84 85 4c ff ff ff 	mov    -0xb4(%ebp,%eax,4),%eax
 8049641:	89 45 d8             	mov    %eax,-0x28(%ebp)
 8049644:	e9 1e 06 00 00       	jmp    8049c67 <fputc@plt+0x1737>
 8049649:	8b 45 cc             	mov    -0x34(%ebp),%eax
 804964c:	83 c0 01             	add    $0x1,%eax
 804964f:	0f b6 80 c0 c0 04 08 	movzbl 0x804c0c0(%eax),%eax
 8049656:	0f be c0             	movsbl %al,%eax
 8049659:	89 45 dc             	mov    %eax,-0x24(%ebp)
 804965c:	8b 45 cc             	mov    -0x34(%ebp),%eax
 804965f:	83 c0 02             	add    $0x2,%eax
 8049662:	0f b6 80 c0 c0 04 08 	movzbl 0x804c0c0(%eax),%eax
 8049669:	0f be c0             	movsbl %al,%eax
 804966c:	8b 84 85 4c ff ff ff 	mov    -0xb4(%ebp,%eax,4),%eax
 8049673:	89 45 e0             	mov    %eax,-0x20(%ebp)
 8049676:	83 45 cc 03          	addl   $0x3,-0x34(%ebp)
 804967a:	8b 45 e0             	mov    -0x20(%ebp),%eax
 804967d:	89 c2                	mov    %eax,%edx
 804967f:	f7 d2                	not    %edx
 8049681:	8b 45 dc             	mov    -0x24(%ebp),%eax
 8049684:	89 94 85 4c ff ff ff 	mov    %edx,-0xb4(%ebp,%eax,4)
 804968b:	8b 45 dc             	mov    -0x24(%ebp),%eax
 804968e:	8b 84 85 4c ff ff ff 	mov    -0xb4(%ebp,%eax,4),%eax
 8049695:	89 45 d8             	mov    %eax,-0x28(%ebp)
 8049698:	e9 ca 05 00 00       	jmp    8049c67 <fputc@plt+0x1737>
 804969d:	8b 45 cc             	mov    -0x34(%ebp),%eax
 80496a0:	83 c0 01             	add    $0x1,%eax
 80496a3:	05 c0 c0 04 08       	add    $0x804c0c0,%eax
 80496a8:	8b 00                	mov    (%eax),%eax
 80496aa:	89 45 f0             	mov    %eax,-0x10(%ebp)
 80496ad:	8b 45 c8             	mov    -0x38(%ebp),%eax
 80496b0:	83 e8 04             	sub    $0x4,%eax
 80496b3:	89 45 c8             	mov    %eax,-0x38(%ebp)
 80496b6:	8b 45 c8             	mov    -0x38(%ebp),%eax
 80496b9:	05 c0 c0 04 08       	add    $0x804c0c0,%eax
 80496be:	8b 55 cc             	mov    -0x34(%ebp),%edx
 80496c1:	83 c2 05             	add    $0x5,%edx
 80496c4:	89 10                	mov    %edx,(%eax)
 80496c6:	8b 45 f0             	mov    -0x10(%ebp),%eax
 80496c9:	89 45 cc             	mov    %eax,-0x34(%ebp)
 80496cc:	e9 96 05 00 00       	jmp    8049c67 <fputc@plt+0x1737>
 80496d1:	8b 45 cc             	mov    -0x34(%ebp),%eax
 80496d4:	83 c0 01             	add    $0x1,%eax
 80496d7:	05 c0 c0 04 08       	add    $0x804c0c0,%eax
 80496dc:	8b 00                	mov    (%eax),%eax
 80496de:	89 45 f0             	mov    %eax,-0x10(%ebp)
 80496e1:	8b 45 f0             	mov    -0x10(%ebp),%eax
 80496e4:	89 45 cc             	mov    %eax,-0x34(%ebp)
 80496e7:	e9 7b 05 00 00       	jmp    8049c67 <fputc@plt+0x1737>
 80496ec:	8b 45 cc             	mov    -0x34(%ebp),%eax
 80496ef:	83 c0 01             	add    $0x1,%eax
 80496f2:	05 c0 c0 04 08       	add    $0x804c0c0,%eax
 80496f7:	8b 00                	mov    (%eax),%eax
 80496f9:	89 45 f0             	mov    %eax,-0x10(%ebp)
 80496fc:	83 7d d8 00          	cmpl   $0x0,-0x28(%ebp)
 8049700:	74 08                	je     804970a <fputc@plt+0x11da>
 8049702:	8b 45 cc             	mov    -0x34(%ebp),%eax
 8049705:	83 c0 05             	add    $0x5,%eax
 8049708:	eb 03                	jmp    804970d <fputc@plt+0x11dd>
 804970a:	8b 45 f0             	mov    -0x10(%ebp),%eax
 804970d:	89 45 cc             	mov    %eax,-0x34(%ebp)
 8049710:	e9 52 05 00 00       	jmp    8049c67 <fputc@plt+0x1737>
 8049715:	8b 45 cc             	mov    -0x34(%ebp),%eax
 8049718:	83 c0 01             	add    $0x1,%eax
 804971b:	05 c0 c0 04 08       	add    $0x804c0c0,%eax
 8049720:	8b 00                	mov    (%eax),%eax
 8049722:	89 45 f0             	mov    %eax,-0x10(%ebp)
 8049725:	83 7d d8 00          	cmpl   $0x0,-0x28(%ebp)
 8049729:	78 08                	js     8049733 <fputc@plt+0x1203>
 804972b:	8b 45 cc             	mov    -0x34(%ebp),%eax
 804972e:	83 c0 05             	add    $0x5,%eax
 8049731:	eb 03                	jmp    8049736 <fputc@plt+0x1206>
 8049733:	8b 45 f0             	mov    -0x10(%ebp),%eax
 8049736:	89 45 cc             	mov    %eax,-0x34(%ebp)
 8049739:	e9 29 05 00 00       	jmp    8049c67 <fputc@plt+0x1737>
 804973e:	8b 45 cc             	mov    -0x34(%ebp),%eax
 8049741:	83 c0 01             	add    $0x1,%eax
 8049744:	05 c0 c0 04 08       	add    $0x804c0c0,%eax
 8049749:	8b 00                	mov    (%eax),%eax
 804974b:	89 45 f0             	mov    %eax,-0x10(%ebp)
 804974e:	83 7d d8 00          	cmpl   $0x0,-0x28(%ebp)
 8049752:	7e 08                	jle    804975c <fputc@plt+0x122c>
 8049754:	8b 45 cc             	mov    -0x34(%ebp),%eax
 8049757:	83 c0 05             	add    $0x5,%eax
 804975a:	eb 03                	jmp    804975f <fputc@plt+0x122f>
 804975c:	8b 45 f0             	mov    -0x10(%ebp),%eax
 804975f:	89 45 cc             	mov    %eax,-0x34(%ebp)
 8049762:	e9 00 05 00 00       	jmp    8049c67 <fputc@plt+0x1737>
 8049767:	8b 45 cc             	mov    -0x34(%ebp),%eax
 804976a:	83 c0 01             	add    $0x1,%eax
 804976d:	05 c0 c0 04 08       	add    $0x804c0c0,%eax
 8049772:	8b 00                	mov    (%eax),%eax
 8049774:	89 45 f0             	mov    %eax,-0x10(%ebp)
 8049777:	83 7d d8 00          	cmpl   $0x0,-0x28(%ebp)
 804977b:	7f 08                	jg     8049785 <fputc@plt+0x1255>
 804977d:	8b 45 cc             	mov    -0x34(%ebp),%eax
 8049780:	83 c0 05             	add    $0x5,%eax
 8049783:	eb 03                	jmp    8049788 <fputc@plt+0x1258>
 8049785:	8b 45 f0             	mov    -0x10(%ebp),%eax
 8049788:	89 45 cc             	mov    %eax,-0x34(%ebp)
 804978b:	e9 d7 04 00 00       	jmp    8049c67 <fputc@plt+0x1737>
 8049790:	8b 45 cc             	mov    -0x34(%ebp),%eax
 8049793:	83 c0 01             	add    $0x1,%eax
 8049796:	05 c0 c0 04 08       	add    $0x804c0c0,%eax
 804979b:	8b 00                	mov    (%eax),%eax
 804979d:	89 45 f0             	mov    %eax,-0x10(%ebp)
 80497a0:	83 7d d8 00          	cmpl   $0x0,-0x28(%ebp)
 80497a4:	79 08                	jns    80497ae <fputc@plt+0x127e>
 80497a6:	8b 45 cc             	mov    -0x34(%ebp),%eax
 80497a9:	83 c0 05             	add    $0x5,%eax
 80497ac:	eb 03                	jmp    80497b1 <fputc@plt+0x1281>
 80497ae:	8b 45 f0             	mov    -0x10(%ebp),%eax
 80497b1:	89 45 cc             	mov    %eax,-0x34(%ebp)
 80497b4:	e9 ae 04 00 00       	jmp    8049c67 <fputc@plt+0x1737>
 80497b9:	8b 45 cc             	mov    -0x34(%ebp),%eax
 80497bc:	83 c0 01             	add    $0x1,%eax
 80497bf:	05 c0 c0 04 08       	add    $0x804c0c0,%eax
 80497c4:	8b 00                	mov    (%eax),%eax
 80497c6:	89 45 f0             	mov    %eax,-0x10(%ebp)
 80497c9:	83 7d d8 00          	cmpl   $0x0,-0x28(%ebp)
 80497cd:	75 08                	jne    80497d7 <fputc@plt+0x12a7>
 80497cf:	8b 45 cc             	mov    -0x34(%ebp),%eax
 80497d2:	83 c0 05             	add    $0x5,%eax
 80497d5:	eb 03                	jmp    80497da <fputc@plt+0x12aa>
 80497d7:	8b 45 f0             	mov    -0x10(%ebp),%eax
 80497da:	89 45 cc             	mov    %eax,-0x34(%ebp)
 80497dd:	e9 85 04 00 00       	jmp    8049c67 <fputc@plt+0x1737>
 80497e2:	8b 45 cc             	mov    -0x34(%ebp),%eax
 80497e5:	83 c0 01             	add    $0x1,%eax
 80497e8:	0f b6 80 c0 c0 04 08 	movzbl 0x804c0c0(%eax),%eax
 80497ef:	0f be c0             	movsbl %al,%eax
 80497f2:	89 45 f4             	mov    %eax,-0xc(%ebp)
 80497f5:	8b 45 f4             	mov    -0xc(%ebp),%eax
 80497f8:	83 f8 01             	cmp    $0x1,%eax
 80497fb:	74 5e                	je     804985b <fputc@plt+0x132b>
 80497fd:	83 f8 01             	cmp    $0x1,%eax
 8049800:	7f 09                	jg     804980b <fputc@plt+0x12db>
 8049802:	85 c0                	test   %eax,%eax
 8049804:	74 18                	je     804981e <fputc@plt+0x12ee>
 8049806:	e9 d5 00 00 00       	jmp    80498e0 <fputc@plt+0x13b0>
 804980b:	83 f8 02             	cmp    $0x2,%eax
 804980e:	74 7b                	je     804988b <fputc@plt+0x135b>
 8049810:	83 f8 04             	cmp    $0x4,%eax
 8049813:	0f 84 a2 00 00 00    	je     80498bb <fputc@plt+0x138b>
 8049819:	e9 c2 00 00 00       	jmp    80498e0 <fputc@plt+0x13b0>
 804981e:	8b 45 cc             	mov    -0x34(%ebp),%eax
 8049821:	83 c0 02             	add    $0x2,%eax
 8049824:	0f b6 80 c0 c0 04 08 	movzbl 0x804c0c0(%eax),%eax
 804982b:	0f be c0             	movsbl %al,%eax
 804982e:	8b 84 85 4c ff ff ff 	mov    -0xb4(%ebp,%eax,4),%eax
 8049835:	89 45 e0             	mov    %eax,-0x20(%ebp)
 8049838:	8b 45 cc             	mov    -0x34(%ebp),%eax
 804983b:	83 c0 03             	add    $0x3,%eax
 804983e:	0f b6 80 c0 c0 04 08 	movzbl 0x804c0c0(%eax),%eax
 8049845:	0f be c0             	movsbl %al,%eax
 8049848:	8b 84 85 4c ff ff ff 	mov    -0xb4(%ebp,%eax,4),%eax
 804984f:	89 45 e4             	mov    %eax,-0x1c(%ebp)
 8049852:	83 45 cc 04          	addl   $0x4,-0x34(%ebp)
 8049856:	e9 85 00 00 00       	jmp    80498e0 <fputc@plt+0x13b0>
 804985b:	8b 45 cc             	mov    -0x34(%ebp),%eax
 804985e:	83 c0 02             	add    $0x2,%eax
 8049861:	0f b6 80 c0 c0 04 08 	movzbl 0x804c0c0(%eax),%eax
 8049868:	0f be c0             	movsbl %al,%eax
 804986b:	8b 84 85 4c ff ff ff 	mov    -0xb4(%ebp,%eax,4),%eax
 8049872:	89 45 e0             	mov    %eax,-0x20(%ebp)
 8049875:	8b 45 cc             	mov    -0x34(%ebp),%eax
 8049878:	83 c0 03             	add    $0x3,%eax
 804987b:	05 c0 c0 04 08       	add    $0x804c0c0,%eax
 8049880:	8b 00                	mov    (%eax),%eax
 8049882:	89 45 e4             	mov    %eax,-0x1c(%ebp)
 8049885:	83 45 cc 07          	addl   $0x7,-0x34(%ebp)
 8049889:	eb 55                	jmp    80498e0 <fputc@plt+0x13b0>
 804988b:	8b 45 cc             	mov    -0x34(%ebp),%eax
 804988e:	83 c0 02             	add    $0x2,%eax
 8049891:	05 c0 c0 04 08       	add    $0x804c0c0,%eax
 8049896:	8b 00                	mov    (%eax),%eax
 8049898:	89 45 e0             	mov    %eax,-0x20(%ebp)
 804989b:	8b 45 cc             	mov    -0x34(%ebp),%eax
 804989e:	83 c0 06             	add    $0x6,%eax
 80498a1:	0f b6 80 c0 c0 04 08 	movzbl 0x804c0c0(%eax),%eax
 80498a8:	0f be c0             	movsbl %al,%eax
 80498ab:	8b 84 85 4c ff ff ff 	mov    -0xb4(%ebp,%eax,4),%eax
 80498b2:	89 45 e4             	mov    %eax,-0x1c(%ebp)
 80498b5:	83 45 cc 07          	addl   $0x7,-0x34(%ebp)
 80498b9:	eb 25                	jmp    80498e0 <fputc@plt+0x13b0>
 80498bb:	8b 45 cc             	mov    -0x34(%ebp),%eax
 80498be:	83 c0 02             	add    $0x2,%eax
 80498c1:	05 c0 c0 04 08       	add    $0x804c0c0,%eax
 80498c6:	8b 00                	mov    (%eax),%eax
 80498c8:	89 45 e0             	mov    %eax,-0x20(%ebp)
 80498cb:	8b 45 cc             	mov    -0x34(%ebp),%eax
 80498ce:	83 c0 06             	add    $0x6,%eax
 80498d1:	05 c0 c0 04 08       	add    $0x804c0c0,%eax
 80498d6:	8b 00                	mov    (%eax),%eax
 80498d8:	89 45 e4             	mov    %eax,-0x1c(%ebp)
 80498db:	83 45 cc 0a          	addl   $0xa,-0x34(%ebp)
 80498df:	90                   	nop
 80498e0:	8b 45 e4             	mov    -0x1c(%ebp),%eax
 80498e3:	8b 55 e0             	mov    -0x20(%ebp),%edx
 80498e6:	21 d0                	and    %edx,%eax
 80498e8:	89 45 d8             	mov    %eax,-0x28(%ebp)
 80498eb:	e9 77 03 00 00       	jmp    8049c67 <fputc@plt+0x1737>
 80498f0:	8b 45 cc             	mov    -0x34(%ebp),%eax
 80498f3:	83 c0 01             	add    $0x1,%eax
 80498f6:	0f b6 80 c0 c0 04 08 	movzbl 0x804c0c0(%eax),%eax
 80498fd:	0f be c0             	movsbl %al,%eax
 8049900:	89 45 f4             	mov    %eax,-0xc(%ebp)
 8049903:	8b 45 f4             	mov    -0xc(%ebp),%eax
 8049906:	83 f8 01             	cmp    $0x1,%eax
 8049909:	74 5e                	je     8049969 <fputc@plt+0x1439>
 804990b:	83 f8 01             	cmp    $0x1,%eax
 804990e:	7f 09                	jg     8049919 <fputc@plt+0x13e9>
 8049910:	85 c0                	test   %eax,%eax
 8049912:	74 18                	je     804992c <fputc@plt+0x13fc>
 8049914:	e9 d5 00 00 00       	jmp    80499ee <fputc@plt+0x14be>
 8049919:	83 f8 02             	cmp    $0x2,%eax
 804991c:	74 7b                	je     8049999 <fputc@plt+0x1469>
 804991e:	83 f8 04             	cmp    $0x4,%eax
 8049921:	0f 84 a2 00 00 00    	je     80499c9 <fputc@plt+0x1499>
 8049927:	e9 c2 00 00 00       	jmp    80499ee <fputc@plt+0x14be>
 804992c:	8b 45 cc             	mov    -0x34(%ebp),%eax
 804992f:	83 c0 02             	add    $0x2,%eax
 8049932:	0f b6 80 c0 c0 04 08 	movzbl 0x804c0c0(%eax),%eax
 8049939:	0f be c0             	movsbl %al,%eax
 804993c:	8b 84 85 4c ff ff ff 	mov    -0xb4(%ebp,%eax,4),%eax
 8049943:	89 45 e0             	mov    %eax,-0x20(%ebp)
 8049946:	8b 45 cc             	mov    -0x34(%ebp),%eax
 8049949:	83 c0 03             	add    $0x3,%eax
 804994c:	0f b6 80 c0 c0 04 08 	movzbl 0x804c0c0(%eax),%eax
 8049953:	0f be c0             	movsbl %al,%eax
 8049956:	8b 84 85 4c ff ff ff 	mov    -0xb4(%ebp,%eax,4),%eax
 804995d:	89 45 e4             	mov    %eax,-0x1c(%ebp)
 8049960:	83 45 cc 04          	addl   $0x4,-0x34(%ebp)
 8049964:	e9 85 00 00 00       	jmp    80499ee <fputc@plt+0x14be>
 8049969:	8b 45 cc             	mov    -0x34(%ebp),%eax
 804996c:	83 c0 02             	add    $0x2,%eax
 804996f:	0f b6 80 c0 c0 04 08 	movzbl 0x804c0c0(%eax),%eax
 8049976:	0f be c0             	movsbl %al,%eax
 8049979:	8b 84 85 4c ff ff ff 	mov    -0xb4(%ebp,%eax,4),%eax
 8049980:	89 45 e0             	mov    %eax,-0x20(%ebp)
 8049983:	8b 45 cc             	mov    -0x34(%ebp),%eax
 8049986:	83 c0 03             	add    $0x3,%eax
 8049989:	05 c0 c0 04 08       	add    $0x804c0c0,%eax
 804998e:	8b 00                	mov    (%eax),%eax
 8049990:	89 45 e4             	mov    %eax,-0x1c(%ebp)
 8049993:	83 45 cc 07          	addl   $0x7,-0x34(%ebp)
 8049997:	eb 55                	jmp    80499ee <fputc@plt+0x14be>
 8049999:	8b 45 cc             	mov    -0x34(%ebp),%eax
 804999c:	83 c0 02             	add    $0x2,%eax
 804999f:	05 c0 c0 04 08       	add    $0x804c0c0,%eax
 80499a4:	8b 00                	mov    (%eax),%eax
 80499a6:	89 45 e0             	mov    %eax,-0x20(%ebp)
 80499a9:	8b 45 cc             	mov    -0x34(%ebp),%eax
 80499ac:	83 c0 06             	add    $0x6,%eax
 80499af:	0f b6 80 c0 c0 04 08 	movzbl 0x804c0c0(%eax),%eax
 80499b6:	0f be c0             	movsbl %al,%eax
 80499b9:	8b 84 85 4c ff ff ff 	mov    -0xb4(%ebp,%eax,4),%eax
 80499c0:	89 45 e4             	mov    %eax,-0x1c(%ebp)
 80499c3:	83 45 cc 07          	addl   $0x7,-0x34(%ebp)
 80499c7:	eb 25                	jmp    80499ee <fputc@plt+0x14be>
 80499c9:	8b 45 cc             	mov    -0x34(%ebp),%eax
 80499cc:	83 c0 02             	add    $0x2,%eax
 80499cf:	05 c0 c0 04 08       	add    $0x804c0c0,%eax
 80499d4:	8b 00                	mov    (%eax),%eax
 80499d6:	89 45 e0             	mov    %eax,-0x20(%ebp)
 80499d9:	8b 45 cc             	mov    -0x34(%ebp),%eax
 80499dc:	83 c0 06             	add    $0x6,%eax
 80499df:	05 c0 c0 04 08       	add    $0x804c0c0,%eax
 80499e4:	8b 00                	mov    (%eax),%eax
 80499e6:	89 45 e4             	mov    %eax,-0x1c(%ebp)
 80499e9:	83 45 cc 0a          	addl   $0xa,-0x34(%ebp)
 80499ed:	90                   	nop
 80499ee:	8b 45 e4             	mov    -0x1c(%ebp),%eax
 80499f1:	8b 55 e0             	mov    -0x20(%ebp),%edx
 80499f4:	89 d1                	mov    %edx,%ecx
 80499f6:	29 c1                	sub    %eax,%ecx
 80499f8:	89 c8                	mov    %ecx,%eax
 80499fa:	89 45 d8             	mov    %eax,-0x28(%ebp)
 80499fd:	e9 65 02 00 00       	jmp    8049c67 <fputc@plt+0x1737>
 8049a02:	8b 45 cc             	mov    -0x34(%ebp),%eax
 8049a05:	83 c0 01             	add    $0x1,%eax
 8049a08:	0f b6 80 c0 c0 04 08 	movzbl 0x804c0c0(%eax),%eax
 8049a0f:	0f be c0             	movsbl %al,%eax
 8049a12:	89 45 f4             	mov    %eax,-0xc(%ebp)
 8049a15:	8b 45 f4             	mov    -0xc(%ebp),%eax
 8049a18:	85 c0                	test   %eax,%eax
 8049a1a:	74 07                	je     8049a23 <fputc@plt+0x14f3>
 8049a1c:	83 f8 01             	cmp    $0x1,%eax
 8049a1f:	74 36                	je     8049a57 <fputc@plt+0x1527>
 8049a21:	eb 5e                	jmp    8049a81 <fputc@plt+0x1551>
 8049a23:	8b 45 cc             	mov    -0x34(%ebp),%eax
 8049a26:	83 c0 02             	add    $0x2,%eax
 8049a29:	0f b6 80 c0 c0 04 08 	movzbl 0x804c0c0(%eax),%eax
 8049a30:	0f be c0             	movsbl %al,%eax
 8049a33:	8b 55 cc             	mov    -0x34(%ebp),%edx
 8049a36:	83 c2 03             	add    $0x3,%edx
 8049a39:	0f b6 92 c0 c0 04 08 	movzbl 0x804c0c0(%edx),%edx
 8049a40:	0f be d2             	movsbl %dl,%edx
 8049a43:	8b 94 95 4c ff ff ff 	mov    -0xb4(%ebp,%edx,4),%edx
 8049a4a:	89 94 85 4c ff ff ff 	mov    %edx,-0xb4(%ebp,%eax,4)
 8049a51:	83 45 cc 04          	addl   $0x4,-0x34(%ebp)
 8049a55:	eb 2a                	jmp    8049a81 <fputc@plt+0x1551>
 8049a57:	8b 45 cc             	mov    -0x34(%ebp),%eax
 8049a5a:	83 c0 02             	add    $0x2,%eax
 8049a5d:	0f b6 80 c0 c0 04 08 	movzbl 0x804c0c0(%eax),%eax
 8049a64:	0f be c0             	movsbl %al,%eax
 8049a67:	8b 55 cc             	mov    -0x34(%ebp),%edx
 8049a6a:	83 c2 03             	add    $0x3,%edx
 8049a6d:	81 c2 c0 c0 04 08    	add    $0x804c0c0,%edx
 8049a73:	8b 12                	mov    (%edx),%edx
 8049a75:	89 94 85 4c ff ff ff 	mov    %edx,-0xb4(%ebp,%eax,4)
 8049a7c:	83 45 cc 07          	addl   $0x7,-0x34(%ebp)
 8049a80:	90                   	nop
 8049a81:	e9 e1 01 00 00       	jmp    8049c67 <fputc@plt+0x1737>
 8049a86:	8b 45 cc             	mov    -0x34(%ebp),%eax
 8049a89:	83 c0 01             	add    $0x1,%eax
 8049a8c:	0f b6 80 c0 c0 04 08 	movzbl 0x804c0c0(%eax),%eax
 8049a93:	0f be c0             	movsbl %al,%eax
 8049a96:	89 45 dc             	mov    %eax,-0x24(%ebp)
 8049a99:	8b 45 dc             	mov    -0x24(%ebp),%eax
 8049a9c:	8b 84 85 4c ff ff ff 	mov    -0xb4(%ebp,%eax,4),%eax
 8049aa3:	8d 50 01             	lea    0x1(%eax),%edx
 8049aa6:	8b 45 dc             	mov    -0x24(%ebp),%eax
 8049aa9:	89 94 85 4c ff ff ff 	mov    %edx,-0xb4(%ebp,%eax,4)
 8049ab0:	83 45 cc 02          	addl   $0x2,-0x34(%ebp)
 8049ab4:	e9 ae 01 00 00       	jmp    8049c67 <fputc@plt+0x1737>
 8049ab9:	8b 45 cc             	mov    -0x34(%ebp),%eax
 8049abc:	83 c0 01             	add    $0x1,%eax
 8049abf:	0f b6 80 c0 c0 04 08 	movzbl 0x804c0c0(%eax),%eax
 8049ac6:	0f be c0             	movsbl %al,%eax
 8049ac9:	89 45 dc             	mov    %eax,-0x24(%ebp)
 8049acc:	8b 45 dc             	mov    -0x24(%ebp),%eax
 8049acf:	8b 84 85 4c ff ff ff 	mov    -0xb4(%ebp,%eax,4),%eax
 8049ad6:	8d 50 ff             	lea    -0x1(%eax),%edx
 8049ad9:	8b 45 dc             	mov    -0x24(%ebp),%eax
 8049adc:	89 94 85 4c ff ff ff 	mov    %edx,-0xb4(%ebp,%eax,4)
 8049ae3:	83 45 cc 02          	addl   $0x2,-0x34(%ebp)
 8049ae7:	e9 7b 01 00 00       	jmp    8049c67 <fputc@plt+0x1737>
 8049aec:	8b 45 cc             	mov    -0x34(%ebp),%eax
 8049aef:	83 c0 01             	add    $0x1,%eax
 8049af2:	0f b6 80 c0 c0 04 08 	movzbl 0x804c0c0(%eax),%eax
 8049af9:	0f be c0             	movsbl %al,%eax
 8049afc:	89 45 dc             	mov    %eax,-0x24(%ebp)
 8049aff:	8b 45 cc             	mov    -0x34(%ebp),%eax
 8049b02:	83 c0 02             	add    $0x2,%eax
 8049b05:	0f b6 80 c0 c0 04 08 	movzbl 0x804c0c0(%eax),%eax
 8049b0c:	0f be c0             	movsbl %al,%eax
 8049b0f:	89 45 e0             	mov    %eax,-0x20(%ebp)
 8049b12:	83 45 cc 03          	addl   $0x3,-0x34(%ebp)
 8049b16:	8b 45 e0             	mov    -0x20(%ebp),%eax
 8049b19:	8b 84 85 4c ff ff ff 	mov    -0xb4(%ebp,%eax,4),%eax
 8049b20:	05 c0 c0 04 08       	add    $0x804c0c0,%eax
 8049b25:	8b 10                	mov    (%eax),%edx
 8049b27:	8b 45 dc             	mov    -0x24(%ebp),%eax
 8049b2a:	89 94 85 4c ff ff ff 	mov    %edx,-0xb4(%ebp,%eax,4)
 8049b31:	8b 45 dc             	mov    -0x24(%ebp),%eax
 8049b34:	8b 84 85 4c ff ff ff 	mov    -0xb4(%ebp,%eax,4),%eax
 8049b3b:	89 45 d8             	mov    %eax,-0x28(%ebp)
 8049b3e:	e9 24 01 00 00       	jmp    8049c67 <fputc@plt+0x1737>
 8049b43:	8b 45 cc             	mov    -0x34(%ebp),%eax
 8049b46:	83 c0 01             	add    $0x1,%eax
 8049b49:	0f b6 80 c0 c0 04 08 	movzbl 0x804c0c0(%eax),%eax
 8049b50:	0f be c0             	movsbl %al,%eax
 8049b53:	89 45 dc             	mov    %eax,-0x24(%ebp)
 8049b56:	8b 45 cc             	mov    -0x34(%ebp),%eax
 8049b59:	83 c0 02             	add    $0x2,%eax
 8049b5c:	0f b6 80 c0 c0 04 08 	movzbl 0x804c0c0(%eax),%eax
 8049b63:	0f be c0             	movsbl %al,%eax
 8049b66:	89 45 e0             	mov    %eax,-0x20(%ebp)
 8049b69:	83 45 cc 03          	addl   $0x3,-0x34(%ebp)
 8049b6d:	8b 45 dc             	mov    -0x24(%ebp),%eax
 8049b70:	8b 84 85 4c ff ff ff 	mov    -0xb4(%ebp,%eax,4),%eax
 8049b77:	05 c0 c0 04 08       	add    $0x804c0c0,%eax
 8049b7c:	8b 55 e0             	mov    -0x20(%ebp),%edx
 8049b7f:	8b 94 95 4c ff ff ff 	mov    -0xb4(%ebp,%edx,4),%edx
 8049b86:	89 10                	mov    %edx,(%eax)
 8049b88:	8b 00                	mov    (%eax),%eax
 8049b8a:	89 45 d8             	mov    %eax,-0x28(%ebp)
 8049b8d:	e9 d5 00 00 00       	jmp    8049c67 <fputc@plt+0x1737>
 8049b92:	8b 45 cc             	mov    -0x34(%ebp),%eax
 8049b95:	83 c0 01             	add    $0x1,%eax
 8049b98:	0f b6 80 c0 c0 04 08 	movzbl 0x804c0c0(%eax),%eax
 8049b9f:	0f be c0             	movsbl %al,%eax
 8049ba2:	89 45 f4             	mov    %eax,-0xc(%ebp)
 8049ba5:	83 7d f4 00          	cmpl   $0x0,-0xc(%ebp)
 8049ba9:	74 16                	je     8049bc1 <fputc@plt+0x1691>
 8049bab:	8b 45 cc             	mov    -0x34(%ebp),%eax
 8049bae:	83 c0 02             	add    $0x2,%eax
 8049bb1:	05 c0 c0 04 08       	add    $0x804c0c0,%eax
 8049bb6:	8b 00                	mov    (%eax),%eax
 8049bb8:	89 45 dc             	mov    %eax,-0x24(%ebp)
 8049bbb:	83 45 cc 06          	addl   $0x6,-0x34(%ebp)
 8049bbf:	eb 1e                	jmp    8049bdf <fputc@plt+0x16af>
 8049bc1:	8b 45 cc             	mov    -0x34(%ebp),%eax
 8049bc4:	83 c0 02             	add    $0x2,%eax
 8049bc7:	0f b6 80 c0 c0 04 08 	movzbl 0x804c0c0(%eax),%eax
 8049bce:	0f be c0             	movsbl %al,%eax
 8049bd1:	8b 84 85 4c ff ff ff 	mov    -0xb4(%ebp,%eax,4),%eax
 8049bd8:	89 45 dc             	mov    %eax,-0x24(%ebp)
 8049bdb:	83 45 cc 03          	addl   $0x3,-0x34(%ebp)
 8049bdf:	8b 45 c8             	mov    -0x38(%ebp),%eax
 8049be2:	83 e8 04             	sub    $0x4,%eax
 8049be5:	89 45 c8             	mov    %eax,-0x38(%ebp)
 8049be8:	8b 45 c8             	mov    -0x38(%ebp),%eax
 8049beb:	8d 90 c0 c0 04 08    	lea    0x804c0c0(%eax),%edx
 8049bf1:	8b 45 dc             	mov    -0x24(%ebp),%eax
 8049bf4:	89 02                	mov    %eax,(%edx)
 8049bf6:	eb 6f                	jmp    8049c67 <fputc@plt+0x1737>
 8049bf8:	8b 45 cc             	mov    -0x34(%ebp),%eax
 8049bfb:	83 c0 01             	add    $0x1,%eax
 8049bfe:	0f b6 80 c0 c0 04 08 	movzbl 0x804c0c0(%eax),%eax
 8049c05:	0f be c0             	movsbl %al,%eax
 8049c08:	89 45 dc             	mov    %eax,-0x24(%ebp)
 8049c0b:	8b 45 c8             	mov    -0x38(%ebp),%eax
 8049c0e:	05 c0 c0 04 08       	add    $0x804c0c0,%eax
 8049c13:	8b 10                	mov    (%eax),%edx
 8049c15:	8b 45 dc             	mov    -0x24(%ebp),%eax
 8049c18:	89 94 85 4c ff ff ff 	mov    %edx,-0xb4(%ebp,%eax,4)
 8049c1f:	8b 45 c8             	mov    -0x38(%ebp),%eax
 8049c22:	83 c0 04             	add    $0x4,%eax
 8049c25:	89 45 c8             	mov    %eax,-0x38(%ebp)
 8049c28:	83 45 cc 02          	addl   $0x2,-0x34(%ebp)
 8049c2c:	eb 39                	jmp    8049c67 <fputc@plt+0x1737>
 8049c2e:	8b 45 cc             	mov    -0x34(%ebp),%eax
 8049c31:	83 c0 01             	add    $0x1,%eax
 8049c34:	0f b6 80 c0 c0 04 08 	movzbl 0x804c0c0(%eax),%eax
 8049c3b:	0f be c0             	movsbl %al,%eax
 8049c3e:	89 45 dc             	mov    %eax,-0x24(%ebp)
 8049c41:	8b 45 dc             	mov    -0x24(%ebp),%eax
 8049c44:	8b 14 85 60 c0 04 08 	mov    0x804c060(,%eax,4),%edx
 8049c4b:	8d 85 4c ff ff ff    	lea    -0xb4(%ebp),%eax
 8049c51:	89 04 24             	mov    %eax,(%esp)
 8049c54:	ff d2                	call   *%edx
 8049c56:	89 85 4c ff ff ff    	mov    %eax,-0xb4(%ebp)
 8049c5c:	83 45 cc 02          	addl   $0x2,-0x34(%ebp)
 8049c60:	eb 05                	jmp    8049c67 <fputc@plt+0x1737>
 8049c62:	83 45 cc 01          	addl   $0x1,-0x34(%ebp)
 8049c66:	90                   	nop
 8049c67:	8b 45 cc             	mov    -0x34(%ebp),%eax
 8049c6a:	05 c0 c0 04 08       	add    $0x804c0c0,%eax
 8049c6f:	0f b6 00             	movzbl (%eax),%eax
 8049c72:	3c 1d                	cmp    $0x1d,%al
 8049c74:	0f 85 b3 ed ff ff    	jne    8048a2d <fputc@plt+0x4fd>
 8049c7a:	8b 85 4c ff ff ff    	mov    -0xb4(%ebp),%eax
 8049c80:	c9                   	leave  
 8049c81:	c3                   	ret    
 8049c82:	55                   	push   %ebp
 8049c83:	89 e5                	mov    %esp,%ebp
 8049c85:	57                   	push   %edi
 8049c86:	53                   	push   %ebx
 8049c87:	83 e4 f0             	and    $0xfffffff0,%esp
 8049c8a:	81 ec 90 00 00 00    	sub    $0x90,%esp
 8049c90:	65 a1 14 00 00 00    	mov    %gs:0x14,%eax
 8049c96:	89 84 24 8c 00 00 00 	mov    %eax,0x8c(%esp)
 8049c9d:	31 c0                	xor    %eax,%eax
 8049c9f:	8d 44 24 10          	lea    0x10(%esp),%eax
 8049ca3:	89 c3                	mov    %eax,%ebx
 8049ca5:	b8 00 00 00 00       	mov    $0x0,%eax
 8049caa:	ba 1f 00 00 00       	mov    $0x1f,%edx
 8049caf:	89 df                	mov    %ebx,%edi
 8049cb1:	89 d1                	mov    %edx,%ecx
 8049cb3:	f3 ab                	rep stos %eax,%es:(%edi)
 8049cb5:	8d 44 24 10          	lea    0x10(%esp),%eax
 8049cb9:	89 04 24             	mov    %eax,(%esp)
 8049cbc:	e8 ca ec ff ff       	call   804898b <fputc@plt+0x45b>
 8049cc1:	b8 00 00 00 00       	mov    $0x0,%eax
 8049cc6:	8b 94 24 8c 00 00 00 	mov    0x8c(%esp),%edx
 8049ccd:	65 33 15 14 00 00 00 	xor    %gs:0x14,%edx
 8049cd4:	74 05                	je     8049cdb <fputc@plt+0x17ab>
 8049cd6:	e8 e5 e7 ff ff       	call   80484c0 <__stack_chk_fail@plt>
 8049cdb:	8d 65 f8             	lea    -0x8(%ebp),%esp
 8049cde:	5b                   	pop    %ebx
 8049cdf:	5f                   	pop    %edi
 8049ce0:	5d                   	pop    %ebp
 8049ce1:	c3                   	ret    
 8049ce2:	90                   	nop
 8049ce3:	90                   	nop
 8049ce4:	90                   	nop
 8049ce5:	90                   	nop
 8049ce6:	90                   	nop
 8049ce7:	90                   	nop
 8049ce8:	90                   	nop
 8049ce9:	90                   	nop
 8049cea:	90                   	nop
 8049ceb:	90                   	nop
 8049cec:	90                   	nop
 8049ced:	90                   	nop
 8049cee:	90                   	nop
 8049cef:	90                   	nop
 8049cf0:	55                   	push   %ebp
 8049cf1:	57                   	push   %edi
 8049cf2:	56                   	push   %esi
 8049cf3:	53                   	push   %ebx
 8049cf4:	e8 69 00 00 00       	call   8049d62 <fputc@plt+0x1832>
 8049cf9:	81 c3 fb 22 00 00    	add    $0x22fb,%ebx
 8049cff:	83 ec 1c             	sub    $0x1c,%esp
 8049d02:	8b 6c 24 30          	mov    0x30(%esp),%ebp
 8049d06:	8d bb 20 ff ff ff    	lea    -0xe0(%ebx),%edi
 8049d0c:	e8 3b e7 ff ff       	call   804844c <raise@plt-0x44>
 8049d11:	8d 83 20 ff ff ff    	lea    -0xe0(%ebx),%eax
 8049d17:	29 c7                	sub    %eax,%edi
 8049d19:	c1 ff 02             	sar    $0x2,%edi
 8049d1c:	85 ff                	test   %edi,%edi
 8049d1e:	74 29                	je     8049d49 <fputc@plt+0x1819>
 8049d20:	31 f6                	xor    %esi,%esi
 8049d22:	8d b6 00 00 00 00    	lea    0x0(%esi),%esi
 8049d28:	8b 44 24 38          	mov    0x38(%esp),%eax
 8049d2c:	89 2c 24             	mov    %ebp,(%esp)
 8049d2f:	89 44 24 08          	mov    %eax,0x8(%esp)
 8049d33:	8b 44 24 34          	mov    0x34(%esp),%eax
 8049d37:	89 44 24 04          	mov    %eax,0x4(%esp)
 8049d3b:	ff 94 b3 20 ff ff ff 	call   *-0xe0(%ebx,%esi,4)
 8049d42:	83 c6 01             	add    $0x1,%esi
 8049d45:	39 fe                	cmp    %edi,%esi
 8049d47:	75 df                	jne    8049d28 <fputc@plt+0x17f8>
 8049d49:	83 c4 1c             	add    $0x1c,%esp
 8049d4c:	5b                   	pop    %ebx
 8049d4d:	5e                   	pop    %esi
 8049d4e:	5f                   	pop    %edi
 8049d4f:	5d                   	pop    %ebp
 8049d50:	c3                   	ret    
 8049d51:	eb 0d                	jmp    8049d60 <fputc@plt+0x1830>
 8049d53:	90                   	nop
 8049d54:	90                   	nop
 8049d55:	90                   	nop
 8049d56:	90                   	nop
 8049d57:	90                   	nop
 8049d58:	90                   	nop
 8049d59:	90                   	nop
 8049d5a:	90                   	nop
 8049d5b:	90                   	nop
 8049d5c:	90                   	nop
 8049d5d:	90                   	nop
 8049d5e:	90                   	nop
 8049d5f:	90                   	nop
 8049d60:	f3 c3                	repz ret 
 8049d62:	8b 1c 24             	mov    (%esp),%ebx
 8049d65:	c3                   	ret    
 8049d66:	90                   	nop
 8049d67:	90                   	nop
 8049d68:	90                   	nop
 8049d69:	90                   	nop
 8049d6a:	90                   	nop
 8049d6b:	90                   	nop
 8049d6c:	90                   	nop
 8049d6d:	90                   	nop
 8049d6e:	90                   	nop
 8049d6f:	90                   	nop
 8049d70:	55                   	push   %ebp
 8049d71:	89 e5                	mov    %esp,%ebp
 8049d73:	53                   	push   %ebx
 8049d74:	83 ec 04             	sub    $0x4,%esp
 8049d77:	a1 14 bf 04 08       	mov    0x804bf14,%eax
 8049d7c:	83 f8 ff             	cmp    $0xffffffff,%eax
 8049d7f:	74 13                	je     8049d94 <fputc@plt+0x1864>
 8049d81:	bb 14 bf 04 08       	mov    $0x804bf14,%ebx
 8049d86:	66 90                	xchg   %ax,%ax
 8049d88:	83 eb 04             	sub    $0x4,%ebx
 8049d8b:	ff d0                	call   *%eax
 8049d8d:	8b 03                	mov    (%ebx),%eax
 8049d8f:	83 f8 ff             	cmp    $0xffffffff,%eax
 8049d92:	75 f4                	jne    8049d88 <fputc@plt+0x1858>
 8049d94:	83 c4 04             	add    $0x4,%esp
 8049d97:	5b                   	pop    %ebx
 8049d98:	5d                   	pop    %ebp
 8049d99:	c3                   	ret    
 8049d9a:	90                   	nop
 8049d9b:	90                   	nop

Disassembly of section .fini:

08049d9c <.fini>:
 8049d9c:	53                   	push   %ebx
 8049d9d:	83 ec 08             	sub    $0x8,%esp
 8049da0:	e8 00 00 00 00       	call   8049da5 <fputc@plt+0x1875>
 8049da5:	5b                   	pop    %ebx
 8049da6:	81 c3 4f 22 00 00    	add    $0x224f,%ebx
 8049dac:	e8 bf e7 ff ff       	call   8048570 <fputc@plt+0x40>
 8049db1:	83 c4 08             	add    $0x8,%esp
 8049db4:	5b                   	pop    %ebx
 8049db5:	c3                   	ret    
